(dp0
S'METTS MARK'
p1
(dp2
S'to_messages'
p3
I807
sS'deferral_payments'
p4
S'NaN'
p5
sS'expenses'
p6
I94299
sS'poi'
p7
I00
sS'deferred_income'
p8
g5
sS'email_address'
p9
S'mark.metts@enron.com'
p10
sS'long_term_incentive'
p11
g5
sS'restricted_stock_deferred'
p12
g5
sS'shared_receipt_with_poi'
p13
I702
sS'loan_advances'
p14
g5
sS'from_messages'
p15
I29
sS'other'
p16
I1740
sS'director_fees'
p17
g5
sS'bonus'
p18
I600000
sS'total_stock_value'
p19
I585062
sS'from_poi_to_this_person'
p20
I38
sS'bonus_salary'
p21
cnumpy.core.multiarray
scalar
p22
(cnumpy
dtype
p23
(S'f8'
p24
I0
I1
tp25
Rp26
(I3
S'<'
p27
NNNI-1
I-1
I0
tp28
bS't\x05\x0e\xbf\xd9\xdd\xd9?'
p29
tp30
Rp31
sS'from_this_person_to_poi'
p32
I1
sS'restricted_stock'
p33
I585062
sS'salary'
p34
I365788
sS'emailto_poi'
p35
g22
(g26
S'\x96{\x1aa\xb9\xa7\xa1?'
p36
tp37
Rp38
sS'total_payments'
p39
I1061827
sS'exercised_stock_options'
p40
g5
ssS'BAXTER JOHN C'
p41
(dp42
g3
g5
sg4
I1295738
sg6
I11200
sg7
I00
sg8
I-1386055
sg9
g5
sg11
I1586055
sg12
g5
sg13
g5
sg14
g5
sg15
g5
sg16
I2660303
sg17
g5
sg18
I1200000
sg19
I10623258
sg20
g5
sg21
g22
(g26
S'2\xfe\x9e\x9c\xa8\xfb\xd8?'
p43
tp44
Rp45
sg32
g5
sg33
I3942714
sg34
I267102
sg35
g22
(g26
S'\x00\x00\x00\x00\x00\x00\x00\x00'
p46
tp47
Rp48
sg39
I5634343
sg40
I6680544
ssS'ELLIOTT STEVEN'
p49
(dp50
g3
g5
sg4
g5
sg6
I78552
sg7
I00
sg8
I-400729
sg9
S'steven.elliott@enron.com'
p51
sg11
g5
sg12
g5
sg13
g5
sg14
g5
sg15
g5
sg16
I12961
sg17
g5
sg18
I350000
sg19
I6678735
sg20
g5
sg21
g22
(g26
S'd\x81\xb1X0J\xc9?'
p52
tp53
Rp54
sg32
g5
sg33
I1788391
sg34
I170941
sg35
g22
(g26
S'\x00\x00\x00\x00\x00\x00\x00\x00'
p55
tp56
Rp57
sg39
I211725
sg40
I4890344
ssS'CORDES WILLIAM R'
p58
(dp59
g3
I764
sg4
g5
sg6
g5
sg7
I00
sg8
g5
sg9
S'bill.cordes@enron.com'
p60
sg11
g5
sg12
g5
sg13
I58
sg14
g5
sg15
I12
sg16
g5
sg17
g5
sg18
g5
sg19
I1038185
sg20
I10
sg21
g22
(g26
S'\x00\x00\x00\x00\x00\x00\x00\x00'
p61
tp62
Rp63
sg32
I0
sg33
I386335
sg34
g5
sg35
g22
(g26
S'\x00\x00\x00\x00\x00\x00\x00\x00'
p64
tp65
Rp66
sg39
g5
sg40
I651850
ssS'HANNON KEVIN P'
p67
(dp68
g3
I1045
sg4
g5
sg6
I34039
sg7
I01
sg8
I-3117011
sg9
S'kevin.hannon@enron.com'
p69
sg11
I1617011
sg12
g5
sg13
I1035
sg14
g5
sg15
I32
sg16
I11350
sg17
g5
sg18
I1500000
sg19
I6391065
sg20
I32
sg21
g22
(g26
S'\xe6c!\xed\x06\x03\xda?'
p70
tp71
Rp72
sg32
I21
sg33
I853064
sg34
I243293
sg35
g22
(g26
S'\x00\x00\x00\x00\x00\x00\xe5?'
p73
tp74
Rp75
sg39
I288682
sg40
I5538001
ssS'MORDAUNT KRISTINA M'
p76
(dp77
g3
g5
sg4
g5
sg6
I35018
sg7
I00
sg8
g5
sg9
S'kristina.mordaunt@enron.com'
p78
sg11
g5
sg12
g5
sg13
g5
sg14
g5
sg15
g5
sg16
I1411
sg17
g5
sg18
I325000
sg19
I208510
sg20
g5
sg21
g22
(g26
S'\xa8@v\xa4\x86\xfb\xd1?'
p79
tp80
Rp81
sg32
g5
sg33
I208510
sg34
I267093
sg35
g22
(g26
S'\x00\x00\x00\x00\x00\x00\x00\x00'
p82
tp83
Rp84
sg39
I628522
sg40
g5
ssS'MEYER ROCKFORD G'
p85
(dp86
g3
I232
sg4
I1848227
sg6
g5
sg7
I00
sg8
g5
sg9
S'rockford.meyer@enron.com'
p87
sg11
g5
sg12
g5
sg13
I22
sg14
g5
sg15
I28
sg16
g5
sg17
g5
sg18
g5
sg19
I955873
sg20
I0
sg21
g22
(g26
S'\x00\x00\x00\x00\x00\x00\x00\x00'
p88
tp89
Rp90
sg32
I0
sg33
I462384
sg34
g5
sg35
g22
(g26
S'\x00\x00\x00\x00\x00\x00\x00\x00'
p91
tp92
Rp93
sg39
I1848227
sg40
I493489
ssS'MCMAHON JEFFREY'
p94
(dp95
g3
I2355
sg4
g5
sg6
I137108
sg7
I00
sg8
g5
sg9
S'jeffrey.mcmahon@enron.com'
p96
sg11
I694862
sg12
g5
sg13
I2228
sg14
g5
sg15
I48
sg16
I297353
sg17
g5
sg18
I2600000
sg19
I1662855
sg20
I58
sg21
g22
(g26
S'`[\x81*G\x11\xe5?'
p97
tp98
Rp99
sg32
I26
sg33
I558801
sg34
I370448
sg35
g22
(g26
S'UUUUUU\xe1?'
p100
tp101
Rp102
sg39
I4099771
sg40
I1104054
ssS'HORTON STANLEY C'
p103
(dp104
g3
I2350
sg4
I3131860
sg6
g5
sg7
I00
sg8
g5
sg9
S'stanley.horton@enron.com'
p105
sg11
g5
sg12
g5
sg13
I1074
sg14
g5
sg15
I1073
sg16
g5
sg17
g5
sg18
g5
sg19
I7256648
sg20
I44
sg21
g22
(g26
S'\x00\x00\x00\x00\x00\x00\x00\x00'
p106
tp107
Rp108
sg32
I15
sg33
I2046079
sg34
g5
sg35
g22
(g26
S'["pJH\xa1\x8c?'
p109
tp110
Rp111
sg39
I3131860
sg40
I5210569
ssS'PIPER GREGORY F'
p112
(dp113
g3
I1238
sg4
I1130036
sg6
I43057
sg7
I00
sg8
I-33333
sg9
S'greg.piper@enron.com'
p114
sg11
g5
sg12
I-409554
sg13
I742
sg14
g5
sg15
I222
sg16
I778
sg17
g5
sg18
I400000
sg19
I880290
sg20
I61
sg21
g22
(g26
S'\x89%\x82\xf0\x14\x1a\xcd?'
p115
tp116
Rp117
sg32
I48
sg33
I409554
sg34
I197091
sg35
g22
(g26
S'\xd0\xba\xc1\x14\xf9\xac\xcb?'
p118
tp119
Rp120
sg39
I1737629
sg40
I880290
ssS'HUMPHREY GENE E'
p121
(dp122
g3
I128
sg4
I2964506
sg6
I4994
sg7
I00
sg8
g5
sg9
S'gene.humphrey@enron.com'
p123
sg11
g5
sg12
g5
sg13
I119
sg14
g5
sg15
I17
sg16
g5
sg17
g5
sg18
g5
sg19
I2282768
sg20
I10
sg21
g22
(g26
S'\x8303ee\x1d\xbe?'
p124
tp125
Rp126
sg32
I17
sg33
g5
sg34
I130724
sg35
g22
(g26
S'\x00\x00\x00\x00\x00\x00\xf0?'
p127
tp128
Rp129
sg39
I3100224
sg40
I2282768
ssS'UMANOFF ADAM S'
p130
(dp131
g3
I111
sg4
g5
sg6
I53122
sg7
I00
sg8
g5
sg9
S'adam.umanoff@enron.com'
p132
sg11
g5
sg12
g5
sg13
I41
sg14
g5
sg15
I18
sg16
g5
sg17
g5
sg18
I788750
sg19
g5
sg20
I12
sg21
g22
(g26
S'["\xd0(7\xee\xd6?'
p133
tp134
Rp135
sg32
I0
sg33
g5
sg34
I288589
sg35
g22
(g26
S'\x00\x00\x00\x00\x00\x00\x00\x00'
p136
tp137
Rp138
sg39
I1130461
sg40
g5
ssS'BLACHMAN JEREMY M'
p139
(dp140
g3
I2475
sg4
g5
sg6
I84208
sg7
I00
sg8
g5
sg9
S'jeremy.blachman@enron.com'
p141
sg11
I831809
sg12
g5
sg13
I2326
sg14
g5
sg15
I14
sg16
I272
sg17
g5
sg18
I850000
sg19
I954354
sg20
I25
sg21
g22
(g26
S'GU&\x84F\x1d\xd5?'
p142
tp143
Rp144
sg32
I2
sg33
I189041
sg34
I248546
sg35
g22
(g26
S'\x92$I\x92$I\xc2?'
p145
tp146
Rp147
sg39
I2014835
sg40
I765313
ssS'SUNDE MARTIN'
p148
(dp149
g3
I2647
sg4
g5
sg6
g5
sg7
I00
sg8
g5
sg9
S'marty.sunde@enron.com'
p150
sg11
I476451
sg12
g5
sg13
I2565
sg14
g5
sg15
I38
sg16
I111122
sg17
g5
sg18
I700000
sg19
I698920
sg20
I37
sg21
g22
(g26
S'*\x97\xb29\xe2m\xd4?'
p151
tp152
Rp153
sg32
I13
sg33
I698920
sg34
I257486
sg35
g22
(g26
S'Q^Cy\r\xe5\xd5?'
p154
tp155
Rp156
sg39
I1545059
sg40
g5
ssS'GIBBS DANA R'
p157
(dp158
g3
I169
sg4
I504610
sg6
g5
sg7
I00
sg8
g5
sg9
S'dana.gibbs@enron.com'
p159
sg11
I461912
sg12
g5
sg13
I23
sg14
g5
sg15
I12
sg16
g5
sg17
g5
sg18
g5
sg19
I2218275
sg20
I0
sg21
g22
(g26
S'\x00\x00\x00\x00\x00\x00\x00\x00'
p160
tp161
Rp162
sg32
I0
sg33
g5
sg34
g5
sg35
g22
(g26
S'\x00\x00\x00\x00\x00\x00\x00\x00'
p163
tp164
Rp165
sg39
I966522
sg40
I2218275
ssS'LOWRY CHARLES P'
p166
(dp167
g3
g5
sg4
g5
sg6
g5
sg7
I00
sg8
g5
sg9
g5
sg11
g5
sg12
I-153686
sg13
g5
sg14
g5
sg15
g5
sg16
g5
sg17
g5
sg18
g5
sg19
I372205
sg20
g5
sg21
g22
(g26
S'\x00\x00\x00\x00\x00\x00\x00\x00'
p168
tp169
Rp170
sg32
g5
sg33
I153686
sg34
g5
sg35
g22
(g26
S'\x00\x00\x00\x00\x00\x00\x00\x00'
p171
tp172
Rp173
sg39
g5
sg40
I372205
ssS'COLWELL WESLEY'
p174
(dp175
g3
I1758
sg4
I27610
sg6
I16514
sg7
I01
sg8
I-144062
sg9
S'wes.colwell@enron.com'
p176
sg11
g5
sg12
g5
sg13
I1132
sg14
g5
sg15
I40
sg16
I101740
sg17
g5
sg18
I1200000
sg19
I698242
sg20
I240
sg21
g22
(g26
S'\xe8p-4\xc37\xda?'
p177
tp178
Rp179
sg32
I11
sg33
I698242
sg34
I288542
sg35
g22
(g26
S'\x9a\x99\x99\x99\x99\x99\xd1?'
p180
tp181
Rp182
sg39
I1490344
sg40
g5
ssS'MULLER MARK S'
p183
(dp184
g3
I136
sg4
I842924
sg6
g5
sg7
I00
sg8
I-719000
sg9
S's..muller@enron.com'
p185
sg11
I1725545
sg12
g5
sg13
I114
sg14
g5
sg15
I16
sg16
I947
sg17
g5
sg18
I1100000
sg19
I1416848
sg20
I12
sg21
g22
(g26
S'\xff\x03\xc6E\x19K\xd7?'
p186
tp187
Rp188
sg32
I0
sg33
I360528
sg34
I251654
sg35
g22
(g26
S'\x00\x00\x00\x00\x00\x00\x00\x00'
p189
tp190
Rp191
sg39
I3202070
sg40
I1056320
ssS'JACKSON CHARLENE R'
p192
(dp193
g3
I258
sg4
g5
sg6
I10181
sg7
I00
sg8
g5
sg9
S'charlene.jackson@enron.com'
p194
sg11
g5
sg12
g5
sg13
I117
sg14
g5
sg15
I56
sg16
I2435
sg17
g5
sg18
I250000
sg19
I725735
sg20
I25
sg21
g22
(g26
S'\x9a}j\xfee\x9e\xd2?'
p195
tp196
Rp197
sg32
I19
sg33
I540672
sg34
I288558
sg35
g22
(g26
S'n\xdb\xb6m\xdb\xb6\xd5?'
p198
tp199
Rp200
sg39
I551174
sg40
I185063
ssS'WESTFAHL RICHARD K'
p201
(dp202
g3
g5
sg4
g5
sg6
I51870
sg7
I00
sg8
I-10800
sg9
S'dick.westfahl@enron.com'
p203
sg11
I256191
sg12
g5
sg13
g5
sg14
g5
sg15
g5
sg16
I401130
sg17
g5
sg18
g5
sg19
I384930
sg20
g5
sg21
g22
(g26
S'6\xac\xdf\xe3\x8d^\xad?'
p204
tp205
Rp206
sg32
g5
sg33
I384930
sg34
I63744
sg35
g22
(g26
S'\x00\x00\x00\x00\x00\x00\x00\x00'
p207
tp208
Rp209
sg39
I762135
sg40
g5
ssS'WALTERS GARETH W'
p210
(dp211
g3
g5
sg4
I53625
sg6
I33785
sg7
I00
sg8
g5
sg9
g5
sg11
g5
sg12
g5
sg13
g5
sg14
g5
sg15
g5
sg16
g5
sg17
g5
sg18
g5
sg19
I1030329
sg20
g5
sg21
g22
(g26
S'\x00\x00\x00\x00\x00\x00\x00\x00'
p212
tp213
Rp214
sg32
g5
sg33
g5
sg34
g5
sg35
g22
(g26
S'\x00\x00\x00\x00\x00\x00\x00\x00'
p215
tp216
Rp217
sg39
I87410
sg40
I1030329
ssS'WALLS JR ROBERT H'
p218
(dp219
g3
I671
sg4
g5
sg6
I50936
sg7
I00
sg8
g5
sg9
S'rob.walls@enron.com'
p220
sg11
I540751
sg12
g5
sg13
I215
sg14
g5
sg15
I146
sg16
I2
sg17
g5
sg18
I850000
sg19
I5898997
sg20
I17
sg21
g22
(g26
S'\xf8\x8d\x9a\x02\xa0]\xdb?'
p221
tp222
Rp223
sg32
I0
sg33
I1552453
sg34
I357091
sg35
g22
(g26
S'\x00\x00\x00\x00\x00\x00\x00\x00'
p224
tp225
Rp226
sg39
I1798780
sg40
I4346544
ssS'KITCHEN LOUISE'
p227
(dp228
g3
I8305
sg4
g5
sg6
I5774
sg7
I00
sg8
g5
sg9
S'louise.kitchen@enron.com'
p229
sg11
g5
sg12
g5
sg13
I3669
sg14
g5
sg15
I1728
sg16
I93925
sg17
g5
sg18
I3100000
sg19
I547143
sg20
I251
sg21
g22
(g26
S'e\xf2\x80Ll7\xe4?'
p230
tp231
Rp232
sg32
I194
sg33
I466101
sg34
I271442
sg35
g22
(g26
S'\xdaKh/\xa1\xbd\xbc?'
p233
tp234
Rp235
sg39
I3471141
sg40
I81042
ssS'CHAN RONNIE'
p236
(dp237
g3
g5
sg4
g5
sg6
g5
sg7
I00
sg8
I-98784
sg9
g5
sg11
g5
sg12
I-32460
sg13
g5
sg14
g5
sg15
g5
sg16
g5
sg17
I98784
sg18
g5
sg19
g5
sg20
g5
sg21
g22
(g26
S'\x00\x00\x00\x00\x00\x00\x00\x00'
p238
tp239
Rp240
sg32
g5
sg33
I32460
sg34
g5
sg35
g22
(g26
S'\x00\x00\x00\x00\x00\x00\x00\x00'
p241
tp242
Rp243
sg39
g5
sg40
g5
ssS'BELFER ROBERT'
p244
(dp245
g3
g5
sg4
I-102500
sg6
g5
sg7
I00
sg8
g5
sg9
g5
sg11
g5
sg12
I44093
sg13
g5
sg14
g5
sg15
g5
sg16
g5
sg17
I3285
sg18
g5
sg19
I-44093
sg20
g5
sg21
g22
(g26
S'\x00\x00\x00\x00\x00\x00\x00\x00'
p246
tp247
Rp248
sg32
g5
sg33
g5
sg34
g5
sg35
g22
(g26
S'\x00\x00\x00\x00\x00\x00\x00\x00'
p249
tp250
Rp251
sg39
I102500
sg40
I3285
ssS'SHANKMAN JEFFREY A'
p252
(dp253
g3
I3221
sg4
g5
sg6
I178979
sg7
I00
sg8
g5
sg9
S'jeffrey.shankman@enron.com'
p254
sg11
I554422
sg12
g5
sg13
I1730
sg14
g5
sg15
I2681
sg16
I1191
sg17
g5
sg18
I2000000
sg19
I2072035
sg20
I94
sg21
g22
(g26
S'\xf4\xf1\xb4\x88\xd8\xc1\xe0?'
p255
tp256
Rp257
sg32
I83
sg33
I630137
sg34
I304110
sg35
g22
(g26
S'\xb3\xb1\xd3O\x9c\xb3\x9f?'
p258
tp259
Rp260
sg39
I3038702
sg40
I1441898
ssS'WODRASKA JOHN'
p261
(dp262
g3
g5
sg4
g5
sg6
g5
sg7
I00
sg8
g5
sg9
S'john.wodraska@enron.com'
p263
sg11
g5
sg12
g5
sg13
g5
sg14
g5
sg15
g5
sg16
I189583
sg17
g5
sg18
g5
sg19
g5
sg20
g5
sg21
g22
(g26
S'\x00\x00\x00\x00\x00\x00\x00\x00'
p264
tp265
Rp266
sg32
g5
sg33
g5
sg34
g5
sg35
g22
(g26
S'\x00\x00\x00\x00\x00\x00\x00\x00'
p267
tp268
Rp269
sg39
I189583
sg40
g5
ssS'BERGSIEKER RICHARD P'
p270
(dp271
g3
I383
sg4
g5
sg6
I59175
sg7
I00
sg8
I-485813
sg9
S'rick.bergsieker@enron.com'
p272
sg11
I180250
sg12
g5
sg13
I233
sg14
g5
sg15
I59
sg16
I427316
sg17
g5
sg18
I250000
sg19
I659249
sg20
I4
sg21
g22
(g26
S'\xc9|\xbc\x0eP\xa5\xc9?'
p273
tp274
Rp275
sg32
I0
sg33
I659249
sg34
I187922
sg35
g22
(g26
S'\x00\x00\x00\x00\x00\x00\x00\x00'
p276
tp277
Rp278
sg39
I618850
sg40
g5
ssS'URQUHART JOHN A'
p279
(dp280
g3
g5
sg4
g5
sg6
I228656
sg7
I00
sg8
I-36666
sg9
g5
sg11
g5
sg12
g5
sg13
g5
sg14
g5
sg15
g5
sg16
g5
sg17
I36666
sg18
g5
sg19
g5
sg20
g5
sg21
g22
(g26
S'\x00\x00\x00\x00\x00\x00\x00\x00'
p281
tp282
Rp283
sg32
g5
sg33
g5
sg34
g5
sg35
g22
(g26
S'\x00\x00\x00\x00\x00\x00\x00\x00'
p284
tp285
Rp286
sg39
I228656
sg40
g5
ssS'BIBI PHILIPPE A'
p287
(dp288
g3
I1607
sg4
g5
sg6
I38559
sg7
I00
sg8
g5
sg9
S'philippe.bibi@enron.com'
p289
sg11
I369721
sg12
g5
sg13
I1336
sg14
g5
sg15
I40
sg16
I425688
sg17
g5
sg18
I1000000
sg19
I1843816
sg20
I23
sg21
g22
(g26
S'6d\xa3\xc7\x9cM\xd4?'
p290
tp291
Rp292
sg32
I8
sg33
I378082
sg34
I213625
sg35
g22
(g26
S'\x9a\x99\x99\x99\x99\x99\xc9?'
p293
tp294
Rp295
sg39
I2047593
sg40
I1465734
ssS'PIRO JIM'
p296
(dp297
g3
I58
sg4
g5
sg6
g5
sg7
I00
sg8
g5
sg9
S'jim.piro@enron.com'
p298
sg11
g5
sg12
g5
sg13
I3
sg14
g5
sg15
I16
sg16
g5
sg17
g5
sg18
g5
sg19
I47304
sg20
I0
sg21
g22
(g26
S'\x00\x00\x00\x00\x00\x00\x00\x00'
p299
tp300
Rp301
sg32
I1
sg33
I47304
sg34
g5
sg35
g22
(g26
S'\x00\x00\x00\x00\x00\x00\xb0?'
p302
tp303
Rp304
sg39
g5
sg40
g5
ssS'RIEKER PAULA H'
p305
(dp306
g3
I1328
sg4
I214678
sg6
I33271
sg7
I01
sg8
I-100000
sg9
S'paula.rieker@enron.com'
p307
sg11
g5
sg12
g5
sg13
I1258
sg14
g5
sg15
I82
sg16
I1950
sg17
g5
sg18
I700000
sg19
I1918887
sg20
I35
sg21
g22
(g26
S'\xc3Y\x16\x88\xbb\xf3\xd3?'
p308
tp309
Rp310
sg32
I48
sg33
I283649
sg34
I249201
sg35
g22
(g26
S'\xbb\x12\xb5+Q\xbb\xe2?'
p311
tp312
Rp313
sg39
I1099100
sg40
I1635238
ssS'WHALEY DAVID A'
p314
(dp315
g3
g5
sg4
g5
sg6
g5
sg7
I00
sg8
g5
sg9
g5
sg11
g5
sg12
g5
sg13
g5
sg14
g5
sg15
g5
sg16
g5
sg17
g5
sg18
g5
sg19
I98718
sg20
g5
sg21
g22
(g26
S'\x00\x00\x00\x00\x00\x00\x00\x00'
p316
tp317
Rp318
sg32
g5
sg33
g5
sg34
g5
sg35
g22
(g26
S'\x00\x00\x00\x00\x00\x00\x00\x00'
p319
tp320
Rp321
sg39
g5
sg40
I98718
ssS'BECK SALLY W'
p322
(dp323
g3
I7315
sg4
g5
sg6
I37172
sg7
I00
sg8
g5
sg9
S'sally.beck@enron.com'
p324
sg11
g5
sg12
g5
sg13
I2639
sg14
g5
sg15
I4343
sg16
I566
sg17
g5
sg18
I700000
sg19
I126027
sg20
I144
sg21
g22
(g26
S'"-\xc0\xae?\xec\xd2?'
p325
tp326
Rp327
sg32
I386
sg33
I126027
sg34
I231330
sg35
g22
(g26
S']\x92\xdbe\xc0\xc0\xb6?'
p328
tp329
Rp330
sg39
I969068
sg40
g5
ssS'HAUG DAVID L'
p331
(dp332
g3
I573
sg4
g5
sg6
I475
sg7
I00
sg8
g5
sg9
S'david.haug@enron.com'
p333
sg11
g5
sg12
g5
sg13
I471
sg14
g5
sg15
I19
sg16
g5
sg17
g5
sg18
g5
sg19
I2217299
sg20
I4
sg21
g22
(g26
S'\x00\x00\x00\x00\x00\x00\x00\x00'
p334
tp335
Rp336
sg32
I7
sg33
I2217299
sg34
g5
sg35
g22
(g26
S'Cy\r\xe55\x94\xd7?'
p337
tp338
Rp339
sg39
I475
sg40
g5
ssS'ECHOLS JOHN B'
p340
(dp341
g3
g5
sg4
g5
sg6
I21530
sg7
I00
sg8
g5
sg9
S'john.echols@enron.com'
p342
sg11
I2234774
sg12
g5
sg13
g5
sg14
g5
sg15
g5
sg16
I53775
sg17
g5
sg18
I200000
sg19
I1008941
sg20
g5
sg21
g22
(g26
S'5\xf9\x0e\x02\x1d1\xc8?'
p343
tp344
Rp345
sg32
g5
sg33
I407503
sg34
I182245
sg35
g22
(g26
S'\x00\x00\x00\x00\x00\x00\x00\x00'
p346
tp347
Rp348
sg39
I2692324
sg40
I601438
ssS'MENDELSOHN JOHN'
p349
(dp350
g3
g5
sg4
g5
sg6
I148
sg7
I00
sg8
I-103750
sg9
g5
sg11
g5
sg12
g5
sg13
g5
sg14
g5
sg15
g5
sg16
g5
sg17
I103750
sg18
g5
sg19
g5
sg20
g5
sg21
g22
(g26
S'\x00\x00\x00\x00\x00\x00\x00\x00'
p351
tp352
Rp353
sg32
g5
sg33
g5
sg34
g5
sg35
g22
(g26
S'\x00\x00\x00\x00\x00\x00\x00\x00'
p354
tp355
Rp356
sg39
I148
sg40
g5
ssS'HICKERSON GARY J'
p357
(dp358
g3
I1320
sg4
g5
sg6
I98849
sg7
I00
sg8
g5
sg9
S'gary.hickerson@enron.com'
p359
sg11
I69223
sg12
g5
sg13
I900
sg14
g5
sg15
I27
sg16
I1936
sg17
g5
sg18
I1700000
sg19
I441096
sg20
I40
sg21
g22
(g26
S'\x1e\x89\x88\xda \xcc\xd9?'
p360
tp361
Rp362
sg32
I1
sg33
I441096
sg34
I211788
sg35
g22
(g26
S'h/\xa1\xbd\x84\xf6\xa2?'
p363
tp364
Rp365
sg39
I2081796
sg40
g5
ssS'CLINE KENNETH W'
p366
(dp367
g3
g5
sg4
g5
sg6
g5
sg7
I00
sg8
g5
sg9
g5
sg11
g5
sg12
I-472568
sg13
g5
sg14
g5
sg15
g5
sg16
g5
sg17
g5
sg18
g5
sg19
I189518
sg20
g5
sg21
g22
(g26
S'\x00\x00\x00\x00\x00\x00\x00\x00'
p368
tp369
Rp370
sg32
g5
sg33
I662086
sg34
g5
sg35
g22
(g26
S'\x00\x00\x00\x00\x00\x00\x00\x00'
p371
tp372
Rp373
sg39
g5
sg40
g5
ssS'LEWIS RICHARD'
p374
(dp375
g3
I952
sg4
g5
sg6
g5
sg7
I00
sg8
g5
sg9
S'richard.lewis@enron.com'
p376
sg11
g5
sg12
g5
sg13
I739
sg14
g5
sg15
I26
sg16
g5
sg17
g5
sg18
g5
sg19
I850477
sg20
I10
sg21
g22
(g26
S'\x00\x00\x00\x00\x00\x00\x00\x00'
p377
tp378
Rp379
sg32
I0
sg33
g5
sg34
g5
sg35
g22
(g26
S'\x00\x00\x00\x00\x00\x00\x00\x00'
p380
tp381
Rp382
sg39
g5
sg40
I850477
ssS'HAYES ROBERT E'
p383
(dp384
g3
I504
sg4
I7961
sg6
g5
sg7
I00
sg8
g5
sg9
S'robert.hayes@enron.com'
p385
sg11
g5
sg12
g5
sg13
I50
sg14
g5
sg15
I12
sg16
g5
sg17
g5
sg18
g5
sg19
I151418
sg20
I16
sg21
g22
(g26
S'\x00\x00\x00\x00\x00\x00\x00\x00'
p386
tp387
Rp388
sg32
I0
sg33
I151418
sg34
g5
sg35
g22
(g26
S'\x00\x00\x00\x00\x00\x00\x00\x00'
p389
tp390
Rp391
sg39
I7961
sg40
g5
ssS'KOPPER MICHAEL J'
p392
(dp393
g3
g5
sg4
g5
sg6
I118134
sg7
I01
sg8
g5
sg9
S'michael.kopper@enron.com'
p394
sg11
I602671
sg12
g5
sg13
g5
sg14
g5
sg15
g5
sg16
I907502
sg17
g5
sg18
I800000
sg19
I985032
sg20
g5
sg21
g22
(g26
S':d8\x80yQ\xd3?'
p395
tp396
Rp397
sg32
g5
sg33
I985032
sg34
I224305
sg35
g22
(g26
S'\x00\x00\x00\x00\x00\x00\x00\x00'
p398
tp399
Rp400
sg39
I2652612
sg40
g5
ssS'LEFF DANIEL P'
p401
(dp402
g3
I2822
sg4
g5
sg6
g5
sg7
I00
sg8
g5
sg9
S'dan.leff@enron.com'
p403
sg11
I1387399
sg12
g5
sg13
I2672
sg14
g5
sg15
I63
sg16
I3083
sg17
g5
sg18
I1000000
sg19
I360528
sg20
I67
sg21
g22
(g26
S'i\xa2\xf2\xf4\x03\xc4\xd7?'
p404
tp405
Rp406
sg32
I14
sg33
I360528
sg34
I273746
sg35
g22
(g26
S'\x1c\xc7q\x1c\xc7q\xcc?'
p407
tp408
Rp409
sg39
I2664228
sg40
g5
ssS'LAVORATO JOHN J'
p410
(dp411
g3
I7259
sg4
g5
sg6
I49537
sg7
I00
sg8
g5
sg9
S'john.lavorato@enron.com'
p412
sg11
I2035380
sg12
g5
sg13
I3962
sg14
g5
sg15
I2585
sg16
I1552
sg17
g5
sg18
I8000000
sg19
I5167144
sg20
I528
sg21
g22
(g26
S'\xd2\xf51\x01\x96\xe2\xf4?'
p413
tp414
Rp415
sg32
I411
sg33
I1008149
sg34
I339288
sg35
g22
(g26
S'_\xc5\xcf\xfe\xebY\xc4?'
p416
tp417
Rp418
sg39
I10425757
sg40
I4158995
ssS'BERBERIAN DAVID'
p419
(dp420
g3
g5
sg4
g5
sg6
I11892
sg7
I00
sg8
g5
sg9
S'david.berberian@enron.com'
p421
sg11
g5
sg12
g5
sg13
g5
sg14
g5
sg15
g5
sg16
g5
sg17
g5
sg18
g5
sg19
I2493616
sg20
g5
sg21
g22
(g26
S'\x0b\xa3\x126k\xf2\xc8?'
p422
tp423
Rp424
sg32
g5
sg33
I869220
sg34
I216582
sg35
g22
(g26
S'\x00\x00\x00\x00\x00\x00\x00\x00'
p425
tp426
Rp427
sg39
I228474
sg40
I1624396
ssS'DETMERING TIMOTHY J'
p428
(dp429
g3
g5
sg4
I875307
sg6
I52255
sg7
I00
sg8
I-775241
sg9
S'timothy.detmering@enron.com'
p430
sg11
I415657
sg12
I-315068
sg13
g5
sg14
g5
sg15
g5
sg16
I1105
sg17
g5
sg18
I425000
sg19
I2027865
sg20
g5
sg21
g22
(g26
S'h\x16\xac\x84\xe0\x0b\xcf?'
p431
tp432
Rp433
sg32
g5
sg33
I315068
sg34
I210500
sg35
g22
(g26
S'\x00\x00\x00\x00\x00\x00\x00\x00'
p434
tp435
Rp436
sg39
I1204583
sg40
I2027865
ssS'WAKEHAM JOHN'
p437
(dp438
g3
g5
sg4
g5
sg6
I103773
sg7
I00
sg8
g5
sg9
g5
sg11
g5
sg12
g5
sg13
g5
sg14
g5
sg15
g5
sg16
g5
sg17
I109298
sg18
g5
sg19
g5
sg20
g5
sg21
g22
(g26
S'\x00\x00\x00\x00\x00\x00\x00\x00'
p439
tp440
Rp441
sg32
g5
sg33
g5
sg34
g5
sg35
g22
(g26
S'\x00\x00\x00\x00\x00\x00\x00\x00'
p442
tp443
Rp444
sg39
I213071
sg40
g5
ssS'POWERS WILLIAM'
p445
(dp446
g3
I653
sg4
g5
sg6
g5
sg7
I00
sg8
I-17500
sg9
S'ken.powers@enron.com'
p447
sg11
g5
sg12
g5
sg13
I12
sg14
g5
sg15
I26
sg16
g5
sg17
I17500
sg18
g5
sg19
g5
sg20
I0
sg21
g22
(g26
S'\x00\x00\x00\x00\x00\x00\x00\x00'
p448
tp449
Rp450
sg32
I0
sg33
g5
sg34
g5
sg35
g22
(g26
S'\x00\x00\x00\x00\x00\x00\x00\x00'
p451
tp452
Rp453
sg39
g5
sg40
g5
ssS'GOLD JOSEPH'
p454
(dp455
g3
g5
sg4
g5
sg6
g5
sg7
I00
sg8
g5
sg9
S'joe.gold@enron.com'
p456
sg11
I304805
sg12
g5
sg13
g5
sg14
g5
sg15
g5
sg16
I819288
sg17
g5
sg18
I750000
sg19
I877611
sg20
g5
sg21
g22
(g26
S'\xb8\xb90Y?\xb7\xd5?'
p457
tp458
Rp459
sg32
g5
sg33
I441096
sg34
I272880
sg35
g22
(g26
S'\x00\x00\x00\x00\x00\x00\x00\x00'
p460
tp461
Rp462
sg39
I2146973
sg40
I436515
ssS'BANNANTINE JAMES M'
p463
(dp464
g3
I566
sg4
g5
sg6
I56301
sg7
I00
sg8
I-5104
sg9
S'james.bannantine@enron.com'
p465
sg11
g5
sg12
I-560222
sg13
I465
sg14
g5
sg15
I29
sg16
I864523
sg17
g5
sg18
g5
sg19
I5243487
sg20
I39
sg21
g22
(g26
S'S\xa0\xf6\xbc\x81!<?'
p466
tp467
Rp468
sg32
I0
sg33
I1757552
sg34
I477
sg35
g22
(g26
S'\x00\x00\x00\x00\x00\x00\x00\x00'
p469
tp470
Rp471
sg39
I916197
sg40
I4046157
ssS'DUNCAN JOHN H'
p472
(dp473
g3
g5
sg4
g5
sg6
g5
sg7
I00
sg8
I-25000
sg9
g5
sg11
g5
sg12
g5
sg13
g5
sg14
g5
sg15
g5
sg16
g5
sg17
I102492
sg18
g5
sg19
I371750
sg20
g5
sg21
g22
(g26
S'\x00\x00\x00\x00\x00\x00\x00\x00'
p474
tp475
Rp476
sg32
g5
sg33
g5
sg34
g5
sg35
g22
(g26
S'\x00\x00\x00\x00\x00\x00\x00\x00'
p477
tp478
Rp479
sg39
I77492
sg40
I371750
ssS'SHAPIRO RICHARD S'
p480
(dp481
g3
I15149
sg4
g5
sg6
I137767
sg7
I00
sg8
g5
sg9
S'richard.shapiro@enron.com'
p482
sg11
g5
sg12
g5
sg13
I4527
sg14
g5
sg15
I1215
sg16
I705
sg17
g5
sg18
I650000
sg19
I987001
sg20
I74
sg21
g22
(g26
S'c\xfc\xca\xd3\\\xb2\xd4?'
p483
tp484
Rp485
sg32
I65
sg33
I379164
sg34
I269076
sg35
g22
(g26
S'\xb3\xd2\xe8\x11\x15d\xab?'
p486
tp487
Rp488
sg39
I1057548
sg40
I607837
ssS'SHERRIFF JOHN R'
p489
(dp490
g3
I3187
sg4
g5
sg6
g5
sg7
I00
sg8
g5
sg9
S'john.sherriff@enron.com'
p491
sg11
I554422
sg12
g5
sg13
I2103
sg14
g5
sg15
I92
sg16
I1852186
sg17
g5
sg18
I1500000
sg19
I3128982
sg20
I28
sg21
g22
(g26
S'+S*-\xe4X\xe2?'
p492
tp493
Rp494
sg32
I23
sg33
I1293424
sg34
I428780
sg35
g22
(g26
S'\x00\x00\x00\x00\x00\x00\xd0?'
p495
tp496
Rp497
sg39
I4335388
sg40
I1835558
ssS'SHELBY REX'
p498
(dp499
g3
I225
sg4
g5
sg6
I22884
sg7
I01
sg8
I-4167
sg9
S'rex.shelby@enron.com'
p500
sg11
g5
sg12
g5
sg13
I91
sg14
g5
sg15
I39
sg16
I1573324
sg17
g5
sg18
I200000
sg19
I2493616
sg20
I13
sg21
g22
(g26
S'J\x9e\xefo\xe8\x99\xcb?'
p501
tp502
Rp503
sg32
I14
sg33
I869220
sg34
I211844
sg35
g22
(g26
S'\x97o\xf9\x96o\xf9\xd6?'
p504
tp505
Rp506
sg39
I2003885
sg40
I1624396
ssS'LEMAISTRE CHARLES'
p507
(dp508
g3
g5
sg4
g5
sg6
g5
sg7
I00
sg8
I-25000
sg9
g5
sg11
g5
sg12
g5
sg13
g5
sg14
g5
sg15
g5
sg16
g5
sg17
I112492
sg18
g5
sg19
I412878
sg20
g5
sg21
g22
(g26
S'\x00\x00\x00\x00\x00\x00\x00\x00'
p509
tp510
Rp511
sg32
g5
sg33
g5
sg34
g5
sg35
g22
(g26
S'\x00\x00\x00\x00\x00\x00\x00\x00'
p512
tp513
Rp514
sg39
I87492
sg40
I412878
ssS'DEFFNER JOSEPH M'
p515
(dp516
g3
I714
sg4
g5
sg6
I41626
sg7
I00
sg8
g5
sg9
S'joseph.deffner@enron.com'
p517
sg11
I335349
sg12
g5
sg13
I552
sg14
g5
sg15
I74
sg16
I25553
sg17
g5
sg18
I600000
sg19
I159211
sg20
I115
sg21
g22
(g26
S'\xdc\x881\xac\xc6\xab\xd0?'
p518
tp519
Rp520
sg32
I4
sg33
I141833
sg34
I206121
sg35
g22
(g26
S'\xd0\xba\xc1\x14\xf9\xac\xab?'
p521
tp522
Rp523
sg39
I1208649
sg40
I17378
ssS'KISHKILL JOSEPH G'
p524
(dp525
g3
g5
sg4
g5
sg6
I116335
sg7
I00
sg8
I-51042
sg9
S'joe.kishkill@enron.com'
p526
sg11
g5
sg12
g5
sg13
g5
sg14
g5
sg15
g5
sg16
I465357
sg17
g5
sg18
g5
sg19
I1034346
sg20
g5
sg21
g22
(g26
S'<\x04\xdd\\\x0b\x12\xc4?'
p527
tp528
Rp529
sg32
g5
sg33
I1034346
sg34
I174246
sg35
g22
(g26
S'\x00\x00\x00\x00\x00\x00\x00\x00'
p530
tp531
Rp532
sg39
I704896
sg40
g5
ssS'WHALLEY LAWRENCE G'
p533
(dp534
g3
I6019
sg4
g5
sg6
I57838
sg7
I00
sg8
g5
sg9
S'greg.whalley@enron.com'
p535
sg11
I808346
sg12
g5
sg13
I3920
sg14
g5
sg15
I556
sg16
I301026
sg17
g5
sg18
I3000000
sg19
I6079137
sg20
I186
sg21
g22
(g26
S'&s[wP\xb2\xea?'
p536
tp537
Rp538
sg32
I24
sg33
I2796177
sg34
I510364
sg35
g22
(g26
S"'!\x8a\xbf\xc8\x19\xa6?"
p539
tp540
Rp541
sg39
I4677574
sg40
I3282960
ssS'MCCARTY DANNY J'
p542
(dp543
g3
I1433
sg4
g5
sg6
g5
sg7
I00
sg8
g5
sg9
S'danny.mccarty@enron.com'
p544
sg11
g5
sg12
g5
sg13
I508
sg14
g5
sg15
I215
sg16
g5
sg17
g5
sg18
g5
sg19
I758931
sg20
I25
sg21
g22
(g26
S'\x00\x00\x00\x00\x00\x00\x00\x00'
p545
tp546
Rp547
sg32
I2
sg33
I94556
sg34
g5
sg35
g22
(g26
S'\x90\xd10\x01\x19\r\x83?'
p548
tp549
Rp550
sg39
g5
sg40
I664375
ssS'MCCONNELL MICHAEL S'
p551
(dp552
g3
I3329
sg4
g5
sg6
I81364
sg7
I00
sg8
g5
sg9
S'mike.mcconnell@enron.com'
p553
sg11
I554422
sg12
g5
sg13
I2189
sg14
g5
sg15
I2742
sg16
I540
sg17
g5
sg18
I1100000
sg19
I3101279
sg20
I92
sg21
g22
(g26
S'fR \xf7\xca\xd2\xdd?'
p554
tp555
Rp556
sg32
I194
sg33
I1478269
sg34
I365038
sg35
g22
(g26
S'8bvr\xc1\x1c\xb2?'
p557
tp558
Rp559
sg39
I2101364
sg40
I1623010
ssS'DELAINEY DAVID W'
p560
(dp561
g3
I3093
sg4
g5
sg6
I86174
sg7
I01
sg8
g5
sg9
S'david.delainey@enron.com'
p562
sg11
I1294981
sg12
g5
sg13
I2097
sg14
g5
sg15
I3069
sg16
I1661
sg17
g5
sg18
I3000000
sg19
I3614261
sg20
I66
sg21
g22
(g26
S'c<(\xfb\xea\x83\xe6?'
p563
tp564
Rp565
sg32
I609
sg33
I1323148
sg34
I365163
sg35
g22
(g26
S'f\x99e\x96Yf\xc9?'
p566
tp567
Rp568
sg39
I4747979
sg40
I2291113
ssS'SULLIVAN-SHAKLOVITZ COLLEEN'
p569
(dp570
g3
g5
sg4
I181993
sg6
g5
sg7
I00
sg8
g5
sg9
g5
sg11
I554422
sg12
g5
sg13
g5
sg14
g5
sg15
g5
sg16
I162
sg17
g5
sg18
I100000
sg19
I1362375
sg20
g5
sg21
g22
(g26
S'_C}t\x83Y\xc4?'
p571
tp572
Rp573
sg32
g5
sg33
g5
sg34
I162779
sg35
g22
(g26
S'\x00\x00\x00\x00\x00\x00\x00\x00'
p574
tp575
Rp576
sg39
I999356
sg40
I1362375
ssS'WROBEL BRUCE'
p577
(dp578
g3
g5
sg4
g5
sg6
g5
sg7
I00
sg8
g5
sg9
g5
sg11
g5
sg12
g5
sg13
g5
sg14
g5
sg15
g5
sg16
g5
sg17
g5
sg18
g5
sg19
I139130
sg20
g5
sg21
g22
(g26
S'\x00\x00\x00\x00\x00\x00\x00\x00'
p579
tp580
Rp581
sg32
g5
sg33
g5
sg34
g5
sg35
g22
(g26
S'\x00\x00\x00\x00\x00\x00\x00\x00'
p582
tp583
Rp584
sg39
g5
sg40
I139130
ssS'LINDHOLM TOD A'
p585
(dp586
g3
g5
sg4
I204075
sg6
I57727
sg7
I00
sg8
g5
sg9
S'tod.lindholm@enron.com'
p587
sg11
I175000
sg12
g5
sg13
g5
sg14
g5
sg15
g5
sg16
I2630
sg17
g5
sg18
I200000
sg19
I3064208
sg20
g5
sg21
g22
(g26
S'K\xe8{\xcd\xado\xce?'
p588
tp589
Rp590
sg32
g5
sg33
I514847
sg34
I236457
sg35
g22
(g26
S'\x00\x00\x00\x00\x00\x00\x00\x00'
p591
tp592
Rp593
sg39
I875889
sg40
I2549361
ssS'MEYER JEROME J'
p594
(dp595
g3
g5
sg4
g5
sg6
I2151
sg7
I00
sg8
I-38346
sg9
g5
sg11
g5
sg12
g5
sg13
g5
sg14
g5
sg15
g5
sg16
g5
sg17
I38346
sg18
g5
sg19
g5
sg20
g5
sg21
g22
(g26
S'\x00\x00\x00\x00\x00\x00\x00\x00'
p596
tp597
Rp598
sg32
g5
sg33
g5
sg34
g5
sg35
g22
(g26
S'\x00\x00\x00\x00\x00\x00\x00\x00'
p599
tp600
Rp601
sg39
I2151
sg40
g5
ssS'LAY KENNETH L'
p602
(dp603
g3
I4273
sg4
I202911
sg6
I99832
sg7
I01
sg8
I-300000
sg9
S'kenneth.lay@enron.com'
p604
sg11
I3600000
sg12
g5
sg13
I2411
sg14
I81525000
sg15
I36
sg16
I10359729
sg17
g5
sg18
I7000000
sg19
I49110078
sg20
I123
sg21
g22
(g26
S'\xf335K{p\xfd?'
p605
tp606
Rp607
sg32
I16
sg33
I14761694
sg34
I1072321
sg35
g22
(g26
S'\x1c\xc7q\x1c\xc7q\xdc?'
p608
tp609
Rp610
sg39
I103559793
sg40
I34348384
ssS'BUTTS ROBERT H'
p611
(dp612
g3
g5
sg4
g5
sg6
I9410
sg7
I00
sg8
I-75000
sg9
S'bob.butts@enron.com'
p613
sg11
I175000
sg12
g5
sg13
g5
sg14
g5
sg15
g5
sg16
I150656
sg17
g5
sg18
I750000
sg19
I417619
sg20
g5
sg21
g22
(g26
S'\x02\xdb\xe9Z\xb3\x0f\xd5?'
p614
tp615
Rp616
sg32
g5
sg33
I417619
sg34
I261516
sg35
g22
(g26
S'\x00\x00\x00\x00\x00\x00\x00\x00'
p617
tp618
Rp619
sg39
I1271582
sg40
g5
ssS'OLSON CINDY K'
p620
(dp621
g3
I1184
sg4
I77716
sg6
I63791
sg7
I00
sg8
g5
sg9
S'cindy.olson@enron.com'
p622
sg11
I100000
sg12
g5
sg13
I856
sg14
g5
sg15
I52
sg16
I972
sg17
g5
sg18
I750000
sg19
I2606763
sg20
I20
sg21
g22
(g26
S'\x93\x92Z\xa7\xcf\xf3\xd8?'
p623
tp624
Rp625
sg32
I15
sg33
I969729
sg34
I329078
sg35
g22
(g26
S"b'vb'v\xd2?"
p626
tp627
Rp628
sg39
I1321557
sg40
I1637034
ssS'MCDONALD REBECCA'
p629
(dp630
g3
I894
sg4
g5
sg6
g5
sg7
I00
sg8
g5
sg9
S'rebecca.mcdonald@enron.com'
p631
sg11
g5
sg12
g5
sg13
I720
sg14
g5
sg15
I13
sg16
g5
sg17
g5
sg18
g5
sg19
I1691366
sg20
I54
sg21
g22
(g26
S'\x00\x00\x00\x00\x00\x00\x00\x00'
p632
tp633
Rp634
sg32
I1
sg33
I934065
sg34
g5
sg35
g22
(g26
S'\x14;\xb1\x13;\xb1\xb3?'
p635
tp636
Rp637
sg39
g5
sg40
I757301
ssS'CUMBERLAND MICHAEL S'
p638
(dp639
g3
g5
sg4
g5
sg6
I22344
sg7
I00
sg8
g5
sg9
g5
sg11
I275000
sg12
g5
sg13
g5
sg14
g5
sg15
g5
sg16
I713
sg17
g5
sg18
I325000
sg19
I207940
sg20
g5
sg21
g22
(g26
S'm\xf9xc_\x7f\xca?'
p640
tp641
Rp642
sg32
g5
sg33
I207940
sg34
I184899
sg35
g22
(g26
S'\x00\x00\x00\x00\x00\x00\x00\x00'
p643
tp644
Rp645
sg39
I807956
sg40
g5
ssS'GAHN ROBERT S'
p646
(dp647
g3
g5
sg4
I73122
sg6
I50080
sg7
I00
sg8
I-1042
sg9
g5
sg11
g5
sg12
g5
sg13
g5
sg14
g5
sg15
g5
sg16
I76547
sg17
g5
sg18
I509870
sg19
I318607
sg20
g5
sg21
g22
(g26
S'\x1e&0\xb19F\xce?'
p648
tp649
Rp650
sg32
g5
sg33
I235370
sg34
I192008
sg35
g22
(g26
S'\x00\x00\x00\x00\x00\x00\x00\x00'
p651
tp652
Rp653
sg39
I900585
sg40
I83237
ssS'MCCLELLAN GEORGE'
p654
(dp655
g3
I1744
sg4
g5
sg6
I228763
sg7
I00
sg8
I-125000
sg9
S'george.mcclellan@enron.com'
p656
sg11
g5
sg12
g5
sg13
I1469
sg14
g5
sg15
I49
sg16
I51587
sg17
g5
sg18
I900000
sg19
I947861
sg20
I52
sg21
g22
(g26
S'\x81r6\x8b\xde^\xd6?'
p657
tp658
Rp659
sg32
I0
sg33
I441096
sg34
I263413
sg35
g22
(g26
S'\x00\x00\x00\x00\x00\x00\x00\x00'
p660
tp661
Rp662
sg39
I1318763
sg40
I506765
ssS'HERMANN ROBERT J'
p663
(dp664
g3
g5
sg4
g5
sg6
I48357
sg7
I00
sg8
I-280000
sg9
S'robert.hermann@enron.com'
p665
sg11
I150000
sg12
g5
sg13
g5
sg14
g5
sg15
g5
sg16
I416441
sg17
g5
sg18
I700000
sg19
I668132
sg20
g5
sg21
g22
(g26
S'\xd9%\xaf)6\xba\xd4?'
p666
tp667
Rp668
sg32
g5
sg33
I480632
sg34
I262663
sg35
g22
(g26
S'\x00\x00\x00\x00\x00\x00\x00\x00'
p669
tp670
Rp671
sg39
I1297461
sg40
I187500
ssS'SCRIMSHAW MATTHEW'
p672
(dp673
g3
g5
sg4
g5
sg6
g5
sg7
I00
sg8
g5
sg9
S'matthew.scrimshaw@enron.com'
p674
sg11
g5
sg12
g5
sg13
g5
sg14
g5
sg15
g5
sg16
g5
sg17
g5
sg18
g5
sg19
I759557
sg20
g5
sg21
g22
(g26
S'\x00\x00\x00\x00\x00\x00\x00\x00'
p675
tp676
Rp677
sg32
g5
sg33
g5
sg34
g5
sg35
g22
(g26
S'\x00\x00\x00\x00\x00\x00\x00\x00'
p678
tp679
Rp680
sg39
g5
sg40
I759557
ssS'GATHMANN WILLIAM D'
p681
(dp682
g3
g5
sg4
g5
sg6
g5
sg7
I00
sg8
g5
sg9
g5
sg11
g5
sg12
I-72419
sg13
g5
sg14
g5
sg15
g5
sg16
g5
sg17
g5
sg18
g5
sg19
I1945360
sg20
g5
sg21
g22
(g26
S'\x00\x00\x00\x00\x00\x00\x00\x00'
p683
tp684
Rp685
sg32
g5
sg33
I264013
sg34
g5
sg35
g22
(g26
S'\x00\x00\x00\x00\x00\x00\x00\x00'
p686
tp687
Rp688
sg39
g5
sg40
I1753766
ssS'HAEDICKE MARK E'
p689
(dp690
g3
I4009
sg4
I2157527
sg6
I76169
sg7
I00
sg8
I-934484
sg9
S'mark.haedicke@enron.com'
p691
sg11
I983346
sg12
I-329825
sg13
I1847
sg14
g5
sg15
I1941
sg16
I52382
sg17
g5
sg18
I1150000
sg19
I803094
sg20
I180
sg21
g22
(g26
S'\xb6E\x8a\x1b+\xbf\xde?'
p692
tp693
Rp694
sg32
I61
sg33
I524169
sg34
I374125
sg35
g22
(g26
S'\xf0T\x8cx6\x17\xa0?'
p695
tp696
Rp697
sg39
I3859065
sg40
I608750
ssS'BOWEN JR RAYMOND M'
p698
(dp699
g3
I1858
sg4
g5
sg6
I65907
sg7
I01
sg8
I-833
sg9
S'raymond.bowen@enron.com'
p700
sg11
I974293
sg12
g5
sg13
I1593
sg14
g5
sg15
I27
sg16
I1621
sg17
g5
sg18
I1350000
sg19
I252055
sg20
I140
sg21
g22
(g26
S'8+|Xe\xd8\xda?'
p701
tp702
Rp703
sg32
I15
sg33
I252055
sg34
I278601
sg35
g22
(g26
S'r\x1c\xc7q\x1c\xc7\xe1?'
p704
tp705
Rp706
sg39
I2669589
sg40
g5
ssS'GILLIS JOHN'
p707
(dp708
g3
g5
sg4
g5
sg6
g5
sg7
I00
sg8
g5
sg9
g5
sg11
g5
sg12
g5
sg13
g5
sg14
g5
sg15
g5
sg16
g5
sg17
g5
sg18
g5
sg19
I85641
sg20
g5
sg21
g22
(g26
S'\x00\x00\x00\x00\x00\x00\x00\x00'
p709
tp710
Rp711
sg32
g5
sg33
I75838
sg34
g5
sg35
g22
(g26
S'\x00\x00\x00\x00\x00\x00\x00\x00'
p712
tp713
Rp714
sg39
g5
sg40
I9803
ssS'FITZGERALD JAY L'
p715
(dp716
g3
I936
sg4
g5
sg6
I23870
sg7
I00
sg8
g5
sg9
S'jay.fitzgerald@enron.com'
p717
sg11
I556416
sg12
g5
sg13
I723
sg14
g5
sg15
I16
sg16
I285414
sg17
g5
sg18
I350000
sg19
I1621236
sg20
I1
sg21
g22
(g26
S'N\x9a\xfe\xda3\x8a\xcc?'
p718
tp719
Rp720
sg32
I8
sg33
I956775
sg34
I199157
sg35
g22
(g26
S'\x00\x00\x00\x00\x00\x00\xe0?'
p721
tp722
Rp723
sg39
I1414857
sg40
I664461
ssS'MORAN MICHAEL P'
p724
(dp725
g3
I672
sg4
g5
sg6
g5
sg7
I00
sg8
g5
sg9
S'michael.moran@enron.com'
p726
sg11
g5
sg12
g5
sg13
I127
sg14
g5
sg15
I19
sg16
g5
sg17
g5
sg18
g5
sg19
I221141
sg20
I0
sg21
g22
(g26
S'\x00\x00\x00\x00\x00\x00\x00\x00'
p727
tp728
Rp729
sg32
I0
sg33
I161602
sg34
g5
sg35
g22
(g26
S'\x00\x00\x00\x00\x00\x00\x00\x00'
p730
tp731
Rp732
sg39
g5
sg40
I59539
ssS'REDMOND BRIAN L'
p733
(dp734
g3
I1671
sg4
g5
sg6
I14689
sg7
I00
sg8
g5
sg9
S'brian.redmond@enron.com'
p735
sg11
g5
sg12
g5
sg13
I1063
sg14
g5
sg15
I221
sg16
g5
sg17
g5
sg18
g5
sg19
I7890324
sg20
I204
sg21
g22
(g26
S'K\x87z\xc1\x19O\xb6?'
p736
tp737
Rp738
sg32
I49
sg33
I381285
sg34
I96840
sg35
g22
(g26
S'\x9cMa\x9cMa\xcc?'
p739
tp740
Rp741
sg39
I111529
sg40
I7509039
ssS'BAZELIDES PHILIP J'
p742
(dp743
g3
g5
sg4
I684694
sg6
g5
sg7
I00
sg8
g5
sg9
g5
sg11
I93750
sg12
g5
sg13
g5
sg14
g5
sg15
g5
sg16
I874
sg17
g5
sg18
g5
sg19
I1599641
sg20
g5
sg21
g22
(g26
S'o\x9aw\xa25\x9e\xb2?'
p744
tp745
Rp746
sg32
g5
sg33
g5
sg34
I80818
sg35
g22
(g26
S'\x00\x00\x00\x00\x00\x00\x00\x00'
p747
tp748
Rp749
sg39
I860136
sg40
I1599641
ssS'BELDEN TIMOTHY N'
p750
(dp751
g3
I7991
sg4
I2144013
sg6
I17355
sg7
I01
sg8
I-2334434
sg9
S'tim.belden@enron.com'
p752
sg11
g5
sg12
g5
sg13
I5521
sg14
g5
sg15
I484
sg16
I210698
sg17
g5
sg18
I5249999
sg19
I1110705
sg20
I228
sg21
g22
(g26
S')\x8b\x92\xef\x8f)\xeb?'
p753
tp754
Rp755
sg32
I108
sg33
I157569
sg34
I213999
sg35
g22
(g26
S'3(\x15&\xde\x8f\xcc?'
p756
tp757
Rp758
sg39
I5501630
sg40
I953136
ssS'DURAN WILLIAM D'
p759
(dp760
g3
I904
sg4
g5
sg6
I25785
sg7
I00
sg8
g5
sg9
S'w.duran@enron.com'
p761
sg11
I1105218
sg12
g5
sg13
I599
sg14
g5
sg15
I12
sg16
I1568
sg17
g5
sg18
I750000
sg19
I1640910
sg20
I106
sg21
g22
(g26
S'Vp\xff\x89^"\xd2?'
p762
tp763
Rp764
sg32
I3
sg33
I189041
sg34
I210692
sg35
g22
(g26
S'\x00\x00\x00\x00\x00\x00\xd0?'
p765
tp766
Rp767
sg39
I2093263
sg40
I1451869
ssS'THORN TERENCE H'
p768
(dp769
g3
I266
sg4
I16586
sg6
I46145
sg7
I00
sg8
g5
sg9
S'terence.thorn@enron.com'
p770
sg11
I200000
sg12
g5
sg13
I73
sg14
g5
sg15
I41
sg16
I426629
sg17
g5
sg18
g5
sg19
I4817796
sg20
I0
sg21
g22
(g26
S'6_M^\xec\x94\xc9?'
p771
tp772
Rp773
sg32
I0
sg33
I365320
sg34
I222093
sg35
g22
(g26
S'\x00\x00\x00\x00\x00\x00\x00\x00'
p774
tp775
Rp776
sg39
I911453
sg40
I4452476
ssS'FASTOW ANDREW S'
p777
(dp778
g3
g5
sg4
g5
sg6
I55921
sg7
I01
sg8
I-1386055
sg9
S'andrew.fastow@enron.com'
p779
sg11
I1736055
sg12
g5
sg13
g5
sg14
g5
sg15
g5
sg16
I277464
sg17
g5
sg18
I1300000
sg19
I1794412
sg20
g5
sg21
g22
(g26
S'\xb3\x14\xf5\xdf\xf2\xe3\xe1?'
p780
tp781
Rp782
sg32
g5
sg33
I1794412
sg34
I440698
sg35
g22
(g26
S'\x00\x00\x00\x00\x00\x00\x00\x00'
p783
tp784
Rp785
sg39
I2424083
sg40
g5
ssS'FOY JOE'
p786
(dp787
g3
I57
sg4
I181755
sg6
g5
sg7
I00
sg8
g5
sg9
S'tracy.foy@enron.com'
p788
sg11
g5
sg12
g5
sg13
I2
sg14
g5
sg15
I13
sg16
g5
sg17
g5
sg18
g5
sg19
I343434
sg20
I0
sg21
g22
(g26
S'\x00\x00\x00\x00\x00\x00\x00\x00'
p789
tp790
Rp791
sg32
I0
sg33
g5
sg34
g5
sg35
g22
(g26
S'\x00\x00\x00\x00\x00\x00\x00\x00'
p792
tp793
Rp794
sg39
I181755
sg40
I343434
ssS'CALGER CHRISTOPHER F'
p795
(dp796
g3
I2598
sg4
g5
sg6
I35818
sg7
I01
sg8
I-262500
sg9
S'christopher.calger@enron.com'
p797
sg11
I375304
sg12
g5
sg13
I2188
sg14
g5
sg15
I144
sg16
I486
sg17
g5
sg18
I1250000
sg19
I126027
sg20
I199
sg21
g22
(g26
S'\xc0^wDC\xd5\xd7?'
p798
tp799
Rp800
sg32
I25
sg33
I126027
sg34
I240189
sg35
g22
(g26
S'\x8e\xe38\x8e\xe38\xc6?'
p801
tp802
Rp803
sg39
I1639297
sg40
g5
ssS'RICE KENNETH D'
p804
(dp805
g3
I905
sg4
g5
sg6
I46950
sg7
I01
sg8
I-3504386
sg9
S'ken.rice@enron.com'
p806
sg11
I1617011
sg12
g5
sg13
I864
sg14
g5
sg15
I18
sg16
I174839
sg17
g5
sg18
I1750000
sg19
I22542539
sg20
I42
sg21
g22
(g26
S'4\x01F\xec\xda\x1c\xe3?'
p807
tp808
Rp809
sg32
I4
sg33
I2748364
sg34
I420636
sg35
g22
(g26
S'\x1c\xc7q\x1c\xc7q\xcc?'
p810
tp811
Rp812
sg39
I505050
sg40
I19794175
ssS'KAMINSKI WINCENTY J'
p813
(dp814
g3
I4607
sg4
g5
sg6
I83585
sg7
I00
sg8
g5
sg9
S'vince.kaminski@enron.com'
p815
sg11
I323466
sg12
g5
sg13
I583
sg14
g5
sg15
I14368
sg16
I4669
sg17
g5
sg18
I400000
sg19
I976037
sg20
I41
sg21
g22
(g26
S'\xaf\xf87o1\x0b\xd3?'
p816
tp817
Rp818
sg32
I171
sg33
I126027
sg34
I275101
sg35
g22
(g26
S'\xba:\xd9C\xc9_\x88?'
p819
tp820
Rp821
sg39
I1086821
sg40
I850010
ssS'LOCKHART EUGENE E'
p822
(dp823
g3
g5
sg4
g5
sg6
g5
sg7
I00
sg8
g5
sg9
g5
sg11
g5
sg12
g5
sg13
g5
sg14
g5
sg15
g5
sg16
g5
sg17
g5
sg18
g5
sg19
g5
sg20
g5
sg21
g22
(g26
S'\x00\x00\x00\x00\x00\x00\x00\x00'
p824
tp825
Rp826
sg32
g5
sg33
g5
sg34
g5
sg35
g22
(g26
S'\x00\x00\x00\x00\x00\x00\x00\x00'
p827
tp828
Rp829
sg39
g5
sg40
g5
ssS'COX DAVID'
p830
(dp831
g3
I102
sg4
g5
sg6
I27861
sg7
I00
sg8
I-41250
sg9
S'chip.cox@enron.com'
p832
sg11
g5
sg12
g5
sg13
I71
sg14
g5
sg15
I33
sg16
I494
sg17
g5
sg18
I800000
sg19
I495633
sg20
I0
sg21
g22
(g26
S"pB\x90\r'\x80\xd8?"
p833
tp834
Rp835
sg32
I4
sg33
I378082
sg34
I314288
sg35
g22
(g26
S'\x08\x1f|\xf0\xc1\x07\xbf?'
p836
tp837
Rp838
sg39
I1101393
sg40
I117551
ssS'OVERDYKE JR JERE C'
p839
(dp840
g3
g5
sg4
g5
sg6
I18834
sg7
I00
sg8
g5
sg9
S'jere.overdyke@enron.com'
p841
sg11
I135836
sg12
g5
sg13
g5
sg14
g5
sg15
g5
sg16
I176
sg17
g5
sg18
g5
sg19
I7307594
sg20
g5
sg21
g22
(g26
S'\xf4\xa2)\x9b\x1b\xdf\xb5?'
p842
tp843
Rp844
sg32
g5
sg33
I2041016
sg34
I94941
sg35
g22
(g26
S'\x00\x00\x00\x00\x00\x00\x00\x00'
p845
tp846
Rp847
sg39
I249787
sg40
I5266578
ssS'PEREIRA PAULO V. FERRAZ'
p848
(dp849
g3
g5
sg4
g5
sg6
I27942
sg7
I00
sg8
I-101250
sg9
g5
sg11
g5
sg12
g5
sg13
g5
sg14
g5
sg15
g5
sg16
g5
sg17
I101250
sg18
g5
sg19
g5
sg20
g5
sg21
g22
(g26
S'\x00\x00\x00\x00\x00\x00\x00\x00'
p850
tp851
Rp852
sg32
g5
sg33
g5
sg34
g5
sg35
g22
(g26
S'\x00\x00\x00\x00\x00\x00\x00\x00'
p853
tp854
Rp855
sg39
I27942
sg40
g5
ssS'STABLER FRANK'
p856
(dp857
g3
g5
sg4
g5
sg6
I16514
sg7
I00
sg8
g5
sg9
S'frank.stabler@enron.com'
p858
sg11
g5
sg12
g5
sg13
g5
sg14
g5
sg15
g5
sg16
I356071
sg17
g5
sg18
I500000
sg19
I511734
sg20
g5
sg21
g22
(g26
S'z\xda\xa6E"\xcb\xd1?'
p859
tp860
Rp861
sg32
g5
sg33
I511734
sg34
I239502
sg35
g22
(g26
S'\x00\x00\x00\x00\x00\x00\x00\x00'
p862
tp863
Rp864
sg39
I1112087
sg40
g5
ssS'SKILLING JEFFREY K'
p865
(dp866
g3
I3627
sg4
g5
sg6
I29336
sg7
I01
sg8
g5
sg9
S'jeff.skilling@enron.com'
p867
sg11
I1920000
sg12
g5
sg13
I2042
sg14
g5
sg15
I108
sg16
I22122
sg17
g5
sg18
I5600000
sg19
I26093672
sg20
I88
sg21
g22
(g26
S'333333\xfb?'
p868
tp869
Rp870
sg32
I30
sg33
I6843672
sg34
I1111258
sg35
g22
(g26
S'r\x1c\xc7q\x1c\xc7\xd1?'
p871
tp872
Rp873
sg39
I8682716
sg40
I19250000
ssS'BLAKE JR. NORMAN P'
p874
(dp875
g3
g5
sg4
g5
sg6
I1279
sg7
I00
sg8
I-113784
sg9
g5
sg11
g5
sg12
g5
sg13
g5
sg14
g5
sg15
g5
sg16
g5
sg17
I113784
sg18
g5
sg19
g5
sg20
g5
sg21
g22
(g26
S'\x00\x00\x00\x00\x00\x00\x00\x00'
p876
tp877
Rp878
sg32
g5
sg33
g5
sg34
g5
sg35
g22
(g26
S'\x00\x00\x00\x00\x00\x00\x00\x00'
p879
tp880
Rp881
sg39
I1279
sg40
g5
ssS'SHERRICK JEFFREY B'
p882
(dp883
g3
I613
sg4
g5
sg6
g5
sg7
I00
sg8
g5
sg9
S'jeffrey.sherrick@enron.com'
p884
sg11
g5
sg12
g5
sg13
I583
sg14
g5
sg15
I25
sg16
g5
sg17
g5
sg18
g5
sg19
I1832468
sg20
I39
sg21
g22
(g26
S'\x00\x00\x00\x00\x00\x00\x00\x00'
p885
tp886
Rp887
sg32
I18
sg33
I405999
sg34
g5
sg35
g22
(g26
S'\n\xd7\xa3p=\n\xe7?'
p888
tp889
Rp890
sg39
g5
sg40
I1426469
ssS'PRENTICE JAMES'
p891
(dp892
g3
g5
sg4
I564348
sg6
g5
sg7
I00
sg8
g5
sg9
S'james.prentice@enron.com'
p893
sg11
g5
sg12
g5
sg13
g5
sg14
g5
sg15
g5
sg16
g5
sg17
g5
sg18
g5
sg19
I1095040
sg20
g5
sg21
g22
(g26
S'\x00\x00\x00\x00\x00\x00\x00\x00'
p894
tp895
Rp896
sg32
g5
sg33
I208809
sg34
g5
sg35
g22
(g26
S'\x00\x00\x00\x00\x00\x00\x00\x00'
p897
tp898
Rp899
sg39
I564348
sg40
I886231
ssS'GRAY RODNEY'
p900
(dp901
g3
g5
sg4
I93585
sg6
g5
sg7
I00
sg8
g5
sg9
g5
sg11
I365625
sg12
g5
sg13
g5
sg14
g5
sg15
g5
sg16
I680833
sg17
g5
sg18
g5
sg19
g5
sg20
g5
sg21
g22
(g26
S'\x0e\x1a\x0c>\xdfax?'
p902
tp903
Rp904
sg32
g5
sg33
g5
sg34
I6615
sg35
g22
(g26
S'\x00\x00\x00\x00\x00\x00\x00\x00'
p905
tp906
Rp907
sg39
I1146658
sg40
g5
ssS'PICKERING MARK R'
p908
(dp909
g3
I898
sg4
g5
sg6
I31653
sg7
I00
sg8
g5
sg9
S'mark.pickering@enron.com'
p910
sg11
g5
sg12
g5
sg13
I728
sg14
I400000
sg15
I67
sg16
g5
sg17
g5
sg18
I300000
sg19
I28798
sg20
I7
sg21
g22
(g26
S'@%l\xb7\x04\x10\xe4?'
p911
tp912
Rp913
sg32
I0
sg33
g5
sg34
I655037
sg35
g22
(g26
S'\x00\x00\x00\x00\x00\x00\x00\x00'
p914
tp915
Rp916
sg39
I1386690
sg40
I28798
ssS'NOLES JAMES L'
p917
(dp918
g3
g5
sg4
I774401
sg6
g5
sg7
I00
sg8
g5
sg9
g5
sg11
g5
sg12
I-94556
sg13
g5
sg14
g5
sg15
g5
sg16
g5
sg17
g5
sg18
g5
sg19
I368705
sg20
g5
sg21
g22
(g26
S'\x00\x00\x00\x00\x00\x00\x00\x00'
p919
tp920
Rp921
sg32
g5
sg33
I463261
sg34
g5
sg35
g22
(g26
S'\x00\x00\x00\x00\x00\x00\x00\x00'
p922
tp923
Rp924
sg39
I774401
sg40
g5
ssS'KEAN STEVEN J'
p925
(dp926
g3
I12754
sg4
g5
sg6
I41953
sg7
I00
sg8
g5
sg9
S'steven.kean@enron.com'
p927
sg11
I300000
sg12
g5
sg13
I3639
sg14
g5
sg15
I6759
sg16
I1231
sg17
g5
sg18
I1000000
sg19
I6153642
sg20
I140
sg21
g22
(g26
S'\x9c\x92\x94\x16kI\xdf?'
p928
tp929
Rp930
sg32
I387
sg33
I4131594
sg34
I404338
sg35
g22
(g26
S'\xc4@\xde\xcc\xc9P\xad?'
p931
tp932
Rp933
sg39
I1747522
sg40
I2022048
ssS'FOWLER PEGGY'
p934
(dp935
g3
I517
sg4
g5
sg6
g5
sg7
I00
sg8
g5
sg9
S'kulvinder.fowler@enron.com'
p936
sg11
g5
sg12
g5
sg13
I10
sg14
g5
sg15
I36
sg16
g5
sg17
g5
sg18
g5
sg19
I1884748
sg20
I0
sg21
g22
(g26
S'\x00\x00\x00\x00\x00\x00\x00\x00'
p937
tp938
Rp939
sg32
I0
sg33
I560170
sg34
g5
sg35
g22
(g26
S'\x00\x00\x00\x00\x00\x00\x00\x00'
p940
tp941
Rp942
sg39
g5
sg40
I1324578
ssS'WASAFF GEORGE'
p943
(dp944
g3
I400
sg4
I831299
sg6
g5
sg7
I00
sg8
I-583325
sg9
S'george.wasaff@enron.com'
p945
sg11
I200000
sg12
g5
sg13
I337
sg14
g5
sg15
I30
sg16
I1425
sg17
g5
sg18
I325000
sg19
I2056427
sg20
I22
sg21
g22
(g26
S'\xa0\xbe\xdb\xe7\xe3\x92\xd1?'
p946
tp947
Rp948
sg32
I7
sg33
I388167
sg34
I259996
sg35
g22
(g26
S'\xde\xdd\xdd\xdd\xdd\xdd\xcd?'
p949
tp950
Rp951
sg39
I1034395
sg40
I1668260
ssS'WHITE JR THOMAS E'
p952
(dp953
g3
g5
sg4
g5
sg6
I81353
sg7
I00
sg8
g5
sg9
S'thomas.white@enron.com'
p954
sg11
g5
sg12
g5
sg13
g5
sg14
g5
sg15
g5
sg16
I1085463
sg17
g5
sg18
I450000
sg19
I15144123
sg20
g5
sg21
g22
(g26
S'0<\xa7\xd7W\xe3\xd5?'
p955
tp956
Rp957
sg32
g5
sg33
I13847074
sg34
I317543
sg35
g22
(g26
S'\x00\x00\x00\x00\x00\x00\x00\x00'
p958
tp959
Rp960
sg39
I1934359
sg40
I1297049
ssS'CHRISTODOULOU DIOMEDES'
p961
(dp962
g3
g5
sg4
g5
sg6
g5
sg7
I00
sg8
g5
sg9
S'diomedes.christodoulou@enron.com'
p963
sg11
g5
sg12
g5
sg13
g5
sg14
g5
sg15
g5
sg16
g5
sg17
g5
sg18
g5
sg19
I6077885
sg20
g5
sg21
g22
(g26
S'\x00\x00\x00\x00\x00\x00\x00\x00'
p964
tp965
Rp966
sg32
g5
sg33
I950730
sg34
g5
sg35
g22
(g26
S'\x00\x00\x00\x00\x00\x00\x00\x00'
p967
tp968
Rp969
sg39
g5
sg40
I5127155
ssS'ALLEN PHILLIP K'
p970
(dp971
g3
I2902
sg4
I2869717
sg6
I13868
sg7
I00
sg8
I-3081055
sg9
S'phillip.allen@enron.com'
p972
sg11
I304805
sg12
I-126027
sg13
I1407
sg14
g5
sg15
I2195
sg16
I152
sg17
g5
sg18
I4175000
sg19
I1729541
sg20
I47
sg21
g22
(g26
S'\xc2\xdf,\x1d\xfa\x83\xe6?'
p973
tp974
Rp975
sg32
I65
sg33
I126027
sg34
I201955
sg35
g22
(g26
S'\xa9\x19\xccn\xceR\x9e?'
p976
tp977
Rp978
sg39
I4484442
sg40
I1729541
ssS'SHARP VICTORIA T'
p979
(dp980
g3
I3136
sg4
I187469
sg6
I116337
sg7
I00
sg8
g5
sg9
S'vicki.sharp@enron.com'
p981
sg11
I422158
sg12
g5
sg13
I2477
sg14
g5
sg15
I136
sg16
I2401
sg17
g5
sg18
I600000
sg19
I494136
sg20
I24
sg21
g22
(g26
S'\xea\x170\xc4`\x17\xd3?'
p982
tp983
Rp984
sg32
I6
sg33
I213063
sg34
I248146
sg35
g22
(g26
S'\x97\x96\x96\x96\x96\x96\xa6?'
p985
tp986
Rp987
sg39
I1576511
sg40
I281073
ssS'JAEDICKE ROBERT'
p988
(dp989
g3
g5
sg4
g5
sg6
g5
sg7
I00
sg8
I-25000
sg9
g5
sg11
g5
sg12
I-44093
sg13
g5
sg14
g5
sg15
g5
sg16
g5
sg17
I108750
sg18
g5
sg19
I431750
sg20
g5
sg21
g22
(g26
S'\x00\x00\x00\x00\x00\x00\x00\x00'
p990
tp991
Rp992
sg32
g5
sg33
I44093
sg34
g5
sg35
g22
(g26
S'\x00\x00\x00\x00\x00\x00\x00\x00'
p993
tp994
Rp995
sg39
I83750
sg40
I431750
ssS'WINOKUR JR. HERBERT S'
p996
(dp997
g3
g5
sg4
g5
sg6
I1413
sg7
I00
sg8
I-25000
sg9
g5
sg11
g5
sg12
g5
sg13
g5
sg14
g5
sg15
g5
sg16
g5
sg17
I108579
sg18
g5
sg19
g5
sg20
g5
sg21
g22
(g26
S'\x00\x00\x00\x00\x00\x00\x00\x00'
p998
tp999
Rp1000
sg32
g5
sg33
g5
sg34
g5
sg35
g22
(g26
S'\x00\x00\x00\x00\x00\x00\x00\x00'
p1001
tp1002
Rp1003
sg39
I84992
sg40
g5
ssS'BROWN MICHAEL'
p1004
(dp1005
g3
I1486
sg4
g5
sg6
I49288
sg7
I00
sg8
g5
sg9
S'michael.brown@enron.com'
p1006
sg11
g5
sg12
g5
sg13
I761
sg14
g5
sg15
I41
sg16
g5
sg17
g5
sg18
g5
sg19
g5
sg20
I13
sg21
g22
(g26
S'\x00\x00\x00\x00\x00\x00\x00\x00'
p1007
tp1008
Rp1009
sg32
I1
sg33
g5
sg34
g5
sg35
g22
(g26
S'\xfa\x18\x9c\x8f\xc1\xf9\x98?'
p1010
tp1011
Rp1012
sg39
I49288
sg40
g5
ssS'BADUM JAMES P'
p1013
(dp1014
g3
g5
sg4
I178980
sg6
I3486
sg7
I00
sg8
g5
sg9
g5
sg11
g5
sg12
g5
sg13
g5
sg14
g5
sg15
g5
sg16
g5
sg17
g5
sg18
g5
sg19
I257817
sg20
g5
sg21
g22
(g26
S'\x00\x00\x00\x00\x00\x00\x00\x00'
p1015
tp1016
Rp1017
sg32
g5
sg33
g5
sg34
g5
sg35
g22
(g26
S'\x00\x00\x00\x00\x00\x00\x00\x00'
p1018
tp1019
Rp1020
sg39
I182466
sg40
I257817
ssS'HUGHES JAMES A'
p1021
(dp1022
g3
I719
sg4
g5
sg6
g5
sg7
I00
sg8
g5
sg9
S'james.hughes@enron.com'
p1023
sg11
g5
sg12
g5
sg13
I589
sg14
g5
sg15
I34
sg16
g5
sg17
g5
sg18
g5
sg19
I1118394
sg20
I35
sg21
g22
(g26
S'\x00\x00\x00\x00\x00\x00\x00\x00'
p1024
tp1025
Rp1026
sg32
I5
sg33
I363428
sg34
g5
sg35
g22
(g26
S'\xd3\xd2\xd2\xd2\xd2\xd2\xc2?'
p1027
tp1028
Rp1029
sg39
g5
sg40
I754966
ssS'REYNOLDS LAWRENCE'
p1030
(dp1031
g3
g5
sg4
I51365
sg6
I8409
sg7
I00
sg8
I-200000
sg9
g5
sg11
I156250
sg12
I-140264
sg13
g5
sg14
g5
sg15
g5
sg16
I202052
sg17
g5
sg18
I100000
sg19
I4221891
sg20
g5
sg21
g22
(g26
S'\xb8\xab\x1c\xfd\xcc\xcc\xb4?'
p1032
tp1033
Rp1034
sg32
g5
sg33
I201483
sg34
I76399
sg35
g22
(g26
S'\x00\x00\x00\x00\x00\x00\x00\x00'
p1035
tp1036
Rp1037
sg39
I394475
sg40
I4160672
ssS'DIMICHELE RICHARD G'
p1038
(dp1039
g3
g5
sg4
g5
sg6
I35812
sg7
I00
sg8
g5
sg9
S'richard.dimichele@enron.com'
p1040
sg11
I694862
sg12
g5
sg13
g5
sg14
g5
sg15
g5
sg16
I374689
sg17
g5
sg18
I1000000
sg19
I8317782
sg20
g5
sg21
g22
(g26
S'l\x7f\x12\\t"\xd7?'
p1041
tp1042
Rp1043
sg32
g5
sg33
I126027
sg34
I262788
sg35
g22
(g26
S'\x00\x00\x00\x00\x00\x00\x00\x00'
p1044
tp1045
Rp1046
sg39
I2368151
sg40
I8191755
ssS'BHATNAGAR SANJAY'
p1047
(dp1048
g3
I523
sg4
g5
sg6
g5
sg7
I00
sg8
g5
sg9
S'sanjay.bhatnagar@enron.com'
p1049
sg11
g5
sg12
I15456290
sg13
I463
sg14
g5
sg15
I29
sg16
I137864
sg17
I137864
sg18
g5
sS'total_stock_value'
p1050
S'NaN'
p1051
sg20
I0
sg21
g22
(g26
S'\x00\x00\x00\x00\x00\x00\x00\x00'
p1052
tp1053
Rp1054
sg32
I1
sg33
I-2604490
sg34
g5
sg35
g22
(g26
S'\x96{\x1aa\xb9\xa7\xa1?'
p1055
tp1056
Rp1057
sg39
I15456290
sg40
I2604490
ssS'CARTER REBECCA C'
p1058
(dp1059
g3
I312
sg4
g5
sg6
g5
sg7
I00
sg8
I-159792
sg9
S'rebecca.carter@enron.com'
p1060
sg11
I75000
sg12
I-307301
sg13
I196
sg14
g5
sg15
I15
sg16
I540
sg17
g5
sg18
I300000
sg19
g5
sg20
I29
sg21
g22
(g26
S'\xad\x06\x9b\xa5kz\xd1?'
p1061
tp1062
Rp1063
sg32
I7
sg33
I307301
sg34
I261809
sg35
g22
(g26
S'\xde\xdd\xdd\xdd\xdd\xdd\xdd?'
p1064
tp1065
Rp1066
sg39
I477557
sg40
g5
ssS'BUCHANAN HAROLD G'
p1067
(dp1068
g3
I1088
sg4
g5
sg6
I600
sg7
I00
sg8
g5
sg9
S'john.buchanan@enron.com'
p1069
sg11
I304805
sg12
g5
sg13
I23
sg14
g5
sg15
I125
sg16
I1215
sg17
g5
sg18
I500000
sg19
I1014505
sg20
I0
sg21
g22
(g26
S'^\xaep\x12\xadH\xd2?'
p1070
tp1071
Rp1072
sg32
I0
sg33
I189041
sg34
I248017
sg35
g22
(g26
S'\x00\x00\x00\x00\x00\x00\x00\x00'
p1073
tp1074
Rp1075
sg39
I1054637
sg40
I825464
ssS'YEAP SOON'
p1076
(dp1077
g3
g5
sg4
g5
sg6
I55097
sg7
I00
sg8
g5
sg9
g5
sg11
g5
sg12
g5
sg13
g5
sg14
g5
sg15
g5
sg16
g5
sg17
g5
sg18
g5
sg19
I192758
sg20
g5
sg21
g22
(g26
S'\x00\x00\x00\x00\x00\x00\x00\x00'
p1078
tp1079
Rp1080
sg32
g5
sg33
g5
sg34
g5
sg35
g22
(g26
S'\x00\x00\x00\x00\x00\x00\x00\x00'
p1081
tp1082
Rp1083
sg39
I55097
sg40
I192758
ssS'MURRAY JULIA H'
p1084
(dp1085
g3
I2192
sg4
g5
sg6
I57580
sg7
I00
sg8
g5
sg9
S'julia.murray@enron.com'
p1086
sg11
I125000
sg12
g5
sg13
I395
sg14
g5
sg15
I45
sg16
I330
sg17
g5
sg18
I400000
sg19
I597461
sg20
I11
sg21
g22
(g26
S'\xd1u\x81\xe9\xaeg\xd0?'
p1087
tp1088
Rp1089
sg32
I2
sg33
I196983
sg34
I229284
sg35
g22
(g26
S'\x17l\xc1\x16l\xc1\xa6?'
p1090
tp1091
Rp1092
sg39
I812194
sg40
I400478
ssS'GARLAND C KEVIN'
p1093
(dp1094
g3
I209
sg4
g5
sg6
I48405
sg7
I00
sg8
g5
sg9
S'kevin.garland@enron.com'
p1095
sg11
I375304
sg12
g5
sg13
I178
sg14
g5
sg15
I44
sg16
I60814
sg17
g5
sg18
I850000
sg19
I896153
sg20
I10
sg21
g22
(g26
S'\xacb\xbb\xe5\x87(\xd4?'
p1096
tp1097
Rp1098
sg32
I27
sg33
I259907
sg34
I231946
sg35
g22
(g26
S'\xa3\x8b.\xba\xe8\xa2\xe3?'
p1099
tp1100
Rp1101
sg39
I1566469
sg40
I636246
ssS'DODSON KEITH'
p1102
(dp1103
g3
I176
sg4
g5
sg6
I28164
sg7
I00
sg8
g5
sg9
S'keith.dodson@enron.com'
p1104
sg11
g5
sg12
g5
sg13
I114
sg14
g5
sg15
I14
sg16
I774
sg17
g5
sg18
I70000
sg19
g5
sg20
I10
sg21
g22
(g26
S'\xb2\xe2:\x8d\x80\x93\xca?'
p1105
tp1106
Rp1107
sg32
I3
sg33
g5
sg34
I221003
sg35
g22
(g26
S'\xdb\xb6m\xdb\xb6m\xcb?'
p1108
tp1109
Rp1110
sg39
I319941
sg40
g5
ssS'YEAGER F SCOTT'
p1111
(dp1112
g3
g5
sg4
g5
sg6
I53947
sg7
I01
sg8
g5
sg9
S'scott.yeager@enron.com'
p1113
sg11
g5
sg12
g5
sg13
g5
sg14
g5
sg15
g5
sg16
I147950
sg17
g5
sg18
g5
sg19
I11884758
sg20
g5
sg21
g22
(g26
S'\xa5V>\x87\xe0>\xc2?'
p1114
tp1115
Rp1116
sg32
g5
sg33
I3576206
sg34
I158403
sg35
g22
(g26
S'\x00\x00\x00\x00\x00\x00\x00\x00'
p1117
tp1118
Rp1119
sg39
I360300
sg40
I8308552
ssS'HIRKO JOSEPH'
p1120
(dp1121
g3
g5
sg4
I10259
sg6
I77978
sg7
I01
sg8
g5
sg9
S'joe.hirko@enron.com'
p1122
sg11
g5
sg12
g5
sg13
g5
sg14
g5
sg15
g5
sg16
I2856
sg17
g5
sg18
g5
sg19
I30766064
sg20
g5
sg21
g22
(g26
S'\x00\x00\x00\x00\x00\x00\x00\x00'
p1123
tp1124
Rp1125
sg32
g5
sg33
g5
sg34
g5
sg35
g22
(g26
S'\x00\x00\x00\x00\x00\x00\x00\x00'
p1126
tp1127
Rp1128
sg39
I91093
sg40
I30766064
ssS'DIETRICH JANET R'
p1129
(dp1130
g3
I2572
sg4
g5
sg6
I3475
sg7
I00
sg8
g5
sg9
S'janet.dietrich@enron.com'
p1131
sg11
I556416
sg12
g5
sg13
I1902
sg14
g5
sg15
I63
sg16
I473
sg17
g5
sg18
I600000
sg19
I1865087
sg20
I305
sg21
g22
(g26
S'\xa3,\xf6\xe4/4\xd3?'
p1132
tp1133
Rp1134
sg32
I14
sg33
I315068
sg34
I250100
sg35
g22
(g26
S'\x1c\xc7q\x1c\xc7q\xcc?'
p1135
tp1136
Rp1137
sg39
I1410464
sg40
I1550019
ssS'DERRICK JR. JAMES V'
p1138
(dp1139
g3
I2181
sg4
g5
sg6
I51124
sg7
I00
sg8
I-1284000
sg9
S'james.derrick@enron.com'
p1140
sg11
I484000
sg12
I-1787380
sg13
I1401
sg14
g5
sg15
I909
sg16
I7482
sg17
g5
sg18
I800000
sg19
I8831913
sg20
I64
sg21
g22
(g26
S'\xd2\n\xbc\r\xe7`\xe1?'
p1141
tp1142
Rp1143
sg32
I20
sg33
I1787380
sg34
I492375
sg35
g22
(g26
S'\x89G\x8a\xa9\xbe\x87\x96?'
p1144
tp1145
Rp1146
sg39
I550981
sg40
I8831913
ssS'FREVERT MARK A'
p1147
(dp1148
g3
I3275
sg4
I6426990
sg6
I86987
sg7
I00
sg8
I-3367011
sg9
S'mark.frevert@enron.com'
p1149
sg11
I1617011
sg12
g5
sg13
I2979
sg14
I2000000
sg15
I21
sg16
I7427621
sg17
g5
sg18
I2000000
sg19
I14622185
sg20
I242
sg21
g22
(g26
S'P\xa3\xa3\xb4\x80F\xf3?'
p1150
tp1151
Rp1152
sg32
I6
sg33
I4188667
sg34
I1060932
sg35
g22
(g26
S'\x92$I\x92$I\xd2?'
p1153
tp1154
Rp1155
sg39
I17252530
sg40
I10433518
ssS'PAI LOU L'
p1156
(dp1157
g3
g5
sg4
g5
sg6
I32047
sg7
I00
sg8
g5
sg9
S'lou.pai@enron.com'
p1158
sg11
g5
sg12
g5
sg13
g5
sg14
g5
sg15
g5
sg16
I1829457
sg17
g5
sg18
I1000000
sg19
I23817930
sg20
g5
sg21
g22
(g26
S'\xd0\xb7\xffs\r\x15\xd7?'
p1159
tp1160
Rp1161
sg32
g5
sg33
I8453763
sg34
I261879
sg35
g22
(g26
S'\x00\x00\x00\x00\x00\x00\x00\x00'
p1162
tp1163
Rp1164
sg39
I3123383
sg40
I15364167
ssS'BAY FRANKLIN R'
p1165
(dp1166
g3
g5
sg4
I260455
sg6
I129142
sg7
I00
sg8
I-201641
sg9
S'frank.bay@enron.com'
p1167
sg11
g5
sg12
I-82782
sg13
g5
sg14
g5
sg15
g5
sg16
I69
sg17
g5
sg18
I400000
sg19
I63014
sg20
g5
sg21
g22
(g26
S'*JeW\xd3\x00\xd1?'
p1168
tp1169
Rp1170
sg32
g5
sg33
I145796
sg34
I239671
sg35
g22
(g26
S'\x00\x00\x00\x00\x00\x00\x00\x00'
p1171
tp1172
Rp1173
sg39
I827696
sg40
g5
ssS'HAYSLETT RODERICK J'
p1174
(dp1175
g3
I2649
sg4
g5
sg6
g5
sg7
I00
sg8
g5
sg9
S'rod.hayslett@enron.com'
p1176
sg11
g5
sg12
g5
sg13
I571
sg14
g5
sg15
I1061
sg16
g5
sg17
g5
sg18
g5
sg19
I346663
sg20
I35
sg21
g22
(g26
S'\x00\x00\x00\x00\x00\x00\x00\x00'
p1177
tp1178
Rp1179
sg32
I38
sg33
I346663
sg34
g5
sg35
g22
(g26
S'\xc7(\xcb\xfe`V\xa2?'
p1180
tp1181
Rp1182
sg39
g5
sg40
g5
ssS'FUGH JOHN L'
p1183
(dp1184
g3
g5
sg4
I50591
sg6
g5
sg7
I00
sg8
g5
sg9
g5
sg11
g5
sg12
g5
sg13
g5
sg14
g5
sg15
g5
sg16
g5
sg17
g5
sg18
g5
sg19
I176378
sg20
g5
sg21
g22
(g26
S'\x00\x00\x00\x00\x00\x00\x00\x00'
p1185
tp1186
Rp1187
sg32
g5
sg33
g5
sg34
g5
sg35
g22
(g26
S'\x00\x00\x00\x00\x00\x00\x00\x00'
p1188
tp1189
Rp1190
sg39
I50591
sg40
I176378
ssS'FALLON JAMES B'
p1191
(dp1192
g3
I1755
sg4
g5
sg6
I95924
sg7
I00
sg8
g5
sg9
S'jim.fallon@enron.com'
p1193
sg11
I374347
sg12
g5
sg13
I1604
sg14
g5
sg15
I75
sg16
I401481
sg17
g5
sg18
I2500000
sg19
I2332399
sg20
I42
sg21
g22
(g26
S'\xfbE\x0b\x9c^\xc5\xe2?'
p1194
tp1195
Rp1196
sg32
I37
sg33
I1392142
sg34
I304588
sg35
g22
(g26
S'\x93_,\xf9\xc5\x92\xdf?'
p1197
tp1198
Rp1199
sg39
I3676340
sg40
I940257
ssS'KOENIG MARK E'
p1200
(dp1201
g3
I2374
sg4
g5
sg6
I127017
sg7
I01
sg8
g5
sg9
S'mark.koenig@enron.com'
p1202
sg11
I300000
sg12
g5
sg13
I2271
sg14
g5
sg15
I61
sg16
I150458
sg17
g5
sg18
I700000
sg19
I1920055
sg20
I53
sg21
g22
(g26
S't\xed\x18\xebUs\xd7?'
p1203
tp1204
Rp1205
sg32
I15
sg33
I1248318
sg34
I309946
sg35
g22
(g26
S'.\x19\x82u\xb4y\xcf?'
p1206
tp1207
Rp1208
sg39
I1587421
sg40
I671737
ssS'SAVAGE FRANK'
p1209
(dp1210
g3
g5
sg4
g5
sg6
g5
sg7
I00
sg8
I-121284
sg9
g5
sg11
g5
sg12
g5
sg13
g5
sg14
g5
sg15
g5
sg16
g5
sg17
I125034
sg18
g5
sg19
g5
sg20
g5
sg21
g22
(g26
S'\x00\x00\x00\x00\x00\x00\x00\x00'
p1211
tp1212
Rp1213
sg32
g5
sg33
g5
sg34
g5
sg35
g22
(g26
S'\x00\x00\x00\x00\x00\x00\x00\x00'
p1214
tp1215
Rp1216
sg39
I3750
sg40
g5
ssS'IZZO LAWRENCE L'
p1217
(dp1218
g3
I496
sg4
g5
sg6
I28093
sg7
I00
sg8
g5
sg9
S'larry.izzo@enron.com'
p1219
sg11
I312500
sg12
g5
sg13
I437
sg14
g5
sg15
I19
sg16
I1553729
sg17
g5
sg18
g5
sg19
I5819980
sg20
I28
sg21
g22
(g26
S'\x93>\x87\x16\x00\xa5\xb3?'
p1220
tp1221
Rp1222
sg32
I5
sg33
I3654808
sg34
I85274
sg35
g22
(g26
S'y\r\xe55\x94\xd7\xd0?'
p1223
tp1224
Rp1225
sg39
I1979596
sg40
I2165172
ssS'TILNEY ELIZABETH A'
p1226
(dp1227
g3
I460
sg4
g5
sg6
g5
sg7
I00
sg8
I-575000
sg9
S'elizabeth.tilney@enron.com'
p1228
sg11
I275000
sg12
g5
sg13
I379
sg14
g5
sg15
I19
sg16
I152055
sg17
g5
sg18
I300000
sg19
I1168042
sg20
I10
sg21
g22
(g26
S'\xa4\xe3\xf1\xab\x10\xa5\xd0?'
p1229
tp1230
Rp1231
sg32
I11
sg33
I576792
sg34
I247338
sg35
g22
(g26
S'l(\xaf\xa1\xbc\x86\xe2?'
p1232
tp1233
Rp1234
sg39
I399393
sg40
I591250
ssS'MARTIN AMANDA K'
p1235
(dp1236
g3
I1522
sg4
I85430
sg6
I8211
sg7
I00
sg8
g5
sg9
S'a..martin@enron.com'
p1237
sg11
I5145434
sg12
g5
sg13
I477
sg14
g5
sg15
I230
sg16
I2818454
sg17
g5
sg18
g5
sg19
I2070306
sg20
I8
sg21
g22
(g26
S'\xad\x89\x91\xdd\xb6 \xd4?'
p1238
tp1239
Rp1240
sg32
I0
sg33
g5
sg34
I349487
sg35
g22
(g26
S'\x00\x00\x00\x00\x00\x00\x00\x00'
p1241
tp1242
Rp1243
sg39
I8407016
sg40
I2070306
ssS'BUY RICHARD B'
p1244
(dp1245
g3
I3523
sg4
I649584
sg6
g5
sg7
I00
sg8
I-694862
sg9
S'rick.buy@enron.com'
p1246
sg11
I769862
sg12
g5
sg13
I2333
sg14
g5
sg15
I1053
sg16
I400572
sg17
g5
sg18
I900000
sg19
I3444470
sg20
I156
sg21
g22
(g26
S'L\xdf\xbb\xa2\xa7<\xda?'
p1247
tp1248
Rp1249
sg32
I71
sg33
I901657
sg34
I330546
sg35
g22
(g26
S'\x83i&J\xdbB\xb1?'
p1250
tp1251
Rp1252
sg39
I2355702
sg40
I2542813
ssS'GRAMM WENDY L'
p1253
(dp1254
g3
g5
sg4
g5
sg6
g5
sg7
I00
sg8
g5
sg9
g5
sg11
g5
sg12
g5
sg13
g5
sg14
g5
sg15
g5
sg16
g5
sg17
I119292
sg18
g5
sg19
g5
sg20
g5
sg21
g22
(g26
S'\x00\x00\x00\x00\x00\x00\x00\x00'
p1255
tp1256
Rp1257
sg32
g5
sg33
g5
sg34
g5
sg35
g22
(g26
S'\x00\x00\x00\x00\x00\x00\x00\x00'
p1258
tp1259
Rp1260
sg39
I119292
sg40
g5
ssS'CAUSEY RICHARD A'
p1261
(dp1262
g3
I1892
sg4
g5
sg6
I30674
sg7
I01
sg8
I-235000
sg9
S'richard.causey@enron.com'
p1263
sg11
I350000
sg12
g5
sg13
I1585
sg14
g5
sg15
I49
sg16
I307895
sg17
g5
sg18
I1000000
sg19
I2502063
sg20
I58
sg21
g22
(g26
S'\x80=\xc9\xd3f\xe9\xdf?'
p1264
tp1265
Rp1266
sg32
I12
sg33
I2502063
sg34
I415189
sg35
g22
(g26
S'\xd6\x87\xc6\xfa\xd0X\xcf?'
p1267
tp1268
Rp1269
sg39
I1868758
sg40
g5
ssS'TAYLOR MITCHELL S'
p1270
(dp1271
g3
I533
sg4
I227449
sg6
g5
sg7
I00
sg8
g5
sg9
S'mitchell.taylor@enron.com'
p1272
sg11
g5
sg12
g5
sg13
I300
sg14
g5
sg15
I29
sg16
g5
sg17
g5
sg18
I600000
sg19
I3745048
sg20
I0
sg21
g22
(g26
S'\xa3\x8a\xe1\xca\x05\x13\xd4?'
p1273
tp1274
Rp1275
sg32
I0
sg33
I563798
sg34
I265214
sg35
g22
(g26
S'\x00\x00\x00\x00\x00\x00\x00\x00'
p1276
tp1277
Rp1278
sg39
I1092663
sg40
I3181250
ssS'DONAHUE JR JEFFREY M'
p1279
(dp1280
g3
I865
sg4
g5
sg6
I96268
sg7
I00
sg8
I-300000
sg9
S'jeff.donahue@enron.com'
p1281
sg11
g5
sg12
g5
sg13
I772
sg14
g5
sg15
I22
sg16
I891
sg17
g5
sg18
I800000
sg19
I1080988
sg20
I188
sg21
g22
(g26
S'\xd1\xc4\x15\xf2\xfeq\xd6?'
p1282
tp1283
Rp1284
sg32
I11
sg33
I315068
sg34
I278601
sg35
g22
(g26
S'\x00\x00\x00\x00\x00\x00\xe0?'
p1285
tp1286
Rp1287
sg39
I875760
sg40
I765920
ssS'GLISAN JR BEN F'
p1288
(dp1289
g3
I873
sg4
g5
sg6
I125978
sg7
I01
sg8
g5
sg9
S'ben.glisan@enron.com'
p1290
sg11
I71023
sg12
g5
sg13
I874
sg14
g5
sg15
I16
sg16
I200308
sg17
g5
sg18
I600000
sg19
I778546
sg20
I52
sg21
g22
(g26
S'\xb64\x97v\xef\xa2\xd4?'
p1291
tp1292
Rp1293
sg32
I6
sg33
I393818
sg34
I274975
sg35
g22
(g26
S'\x00\x00\x00\x00\x00\x00\xd8?'
p1294
tp1295
Rp1296
sg39
I1272284
sg40
I384728
ss.